

Microchip MPLAB XC8 Assembler V2.31 build 20201012212115 
                                                                                               Wed Nov 17 14:35:49 2021

Microchip MPLAB XC8 C Compiler v2.31 (Free license) build 20201012212115 Og1 
     1                           	processor	16F887
     2                           	pagewidth 120
     3                           	opt	flic
     4                           	psect	idataBANK0,global,class=CODE,delta=2,noexec
     5                           	psect	nvBANK0,global,class=BANK0,space=1,delta=1,noexec
     6                           	psect	cinit,global,class=CODE,merge=1,delta=2
     7                           	psect	bssBANK0,global,class=BANK0,space=1,delta=1,noexec
     8                           	psect	dataBANK0,global,class=BANK0,space=1,delta=1,noexec
     9                           	psect	inittext,global,class=CODE,delta=2
    10                           	psect	clrtext,global,class=CODE,delta=2
    11                           	psect	cstackBANK1,global,class=BANK1,space=1,delta=1,noexec
    12                           	psect	cstackCOMMON,global,class=COMMON,space=1,delta=1,noexec
    13                           	psect	cstackBANK0,global,class=BANK0,space=1,delta=1,noexec
    14                           	psect	maintext,global,class=CODE,split=1,delta=2
    15                           	psect	text1,local,class=CODE,merge=1,delta=2
    16                           	psect	text2,local,class=CODE,merge=1,delta=2,group=2
    17                           	psect	text3,local,class=CODE,merge=1,delta=2,group=2
    18                           	psect	text4,local,class=CODE,merge=1,delta=2,group=1
    19                           	psect	text5,local,class=CODE,merge=1,delta=2
    20                           	psect	text6,local,class=CODE,merge=1,delta=2
    21                           	psect	text7,local,class=CODE,merge=1,delta=2
    22                           	psect	intentry,global,class=CODE,delta=2
    23                           	psect	text8,local,class=CODE,merge=1,delta=2
    24                           	psect	text9,local,class=CODE,merge=1,delta=2
    25                           	psect	text10,local,class=CODE,merge=1,delta=2
    26                           	psect	text11,local,class=CODE,merge=1,delta=2
    27                           	psect	text12,local,class=CODE,merge=1,delta=2
    28                           	psect	text13,local,class=CODE,merge=1,delta=2
    29                           	psect	text14,local,class=CODE,merge=1,delta=2
    30                           	psect	config,global,abs,ovrld,class=CONFIG,space=4,delta=2,noexec
    31                           	dabs	1,0x7E,2
    32  0000                     
    33                           ; Version 2.20
    34                           ; Generated 12/02/2020 GMT
    35                           ; 
    36                           ; Copyright © 2020, Microchip Technology Inc. and its subsidiaries ("Microchip")
    37                           ; All rights reserved.
    38                           ; 
    39                           ; This software is developed by Microchip Technology Inc. and its subsidiaries ("Microch
      +                          ip").
    40                           ; 
    41                           ; Redistribution and use in source and binary forms, with or without modification, are
    42                           ; permitted provided that the following conditions are met:
    43                           ; 
    44                           ;     1. Redistributions of source code must retain the above copyright notice, this lis
      +                          t of
    45                           ;        conditions and the following disclaimer.
    46                           ; 
    47                           ;     2. Redistributions in binary form must reproduce the above copyright notice, this 
      +                          list
    48                           ;        of conditions and the following disclaimer in the documentation and/or other
    49                           ;        materials provided with the distribution.
    50                           ; 
    51                           ;     3. Microchip's name may not be used to endorse or promote products derived from th
      +                          is
    52                           ;        software without specific prior written permission.
    53                           ; 
    54                           ; THIS SOFTWARE IS PROVIDED BY MICROCHIP "AS IS" AND ANY EXPRESS OR IMPLIED WARRANTIES,
    55                           ; INCLUDING, BUT NOT LIMITED TO, THE IMPLIED WARRANTIES OF MERCHANTABILITY AND FITNESS F
      +                          OR
    56                           ; PURPOSE ARE DISCLAIMED.  IN NO EVENT SHALL MICROCHIP BE LIABLE FOR ANY DIRECT, INDIREC
      +                          T,
    57                           ; INCIDENTAL, SPECIAL, EXEMPLARY, OR CONSEQUENTIAL DAMAGES (INCLUDING BUT NOT LIMITED TO
    58                           ; PROCUREMENT OF SUBSTITUTE GOODS OR SERVICES; LOSS OF USE, DATA OR PROFITS; OR BUSINESS
    59                           ; INTERRUPTION) HOWSOEVER CAUSED AND ON ANY THEORY OF LIABILITY, WHETHER IN CONTRACT, ST
      +                          RICT
    60                           ; LIABILITY, OR TORT (INCLUDING NEGLIGENCE OR OTHERWISE) ARISING IN ANY WAY OUT OF THE U
      +                          SE OF
    61                           ; THIS SOFTWARE, EVEN IF ADVISED OF THE POSSIBILITY OF SUCH DAMAGE.
    62                           ; 
    63                           ; 
    64                           ; Code-generator required, PIC16F887 Definitions
    65                           ; 
    66                           ; SFR Addresses
    67  0000                     	;# 
    68  0001                     	;# 
    69  0002                     	;# 
    70  0003                     	;# 
    71  0004                     	;# 
    72  0005                     	;# 
    73  0006                     	;# 
    74  0007                     	;# 
    75  0008                     	;# 
    76  0009                     	;# 
    77  000A                     	;# 
    78  000B                     	;# 
    79  000C                     	;# 
    80  000D                     	;# 
    81  000E                     	;# 
    82  000E                     	;# 
    83  000F                     	;# 
    84  0010                     	;# 
    85  0011                     	;# 
    86  0012                     	;# 
    87  0013                     	;# 
    88  0014                     	;# 
    89  0015                     	;# 
    90  0015                     	;# 
    91  0016                     	;# 
    92  0017                     	;# 
    93  0018                     	;# 
    94  0019                     	;# 
    95  001A                     	;# 
    96  001B                     	;# 
    97  001B                     	;# 
    98  001C                     	;# 
    99  001D                     	;# 
   100  001E                     	;# 
   101  001F                     	;# 
   102  0081                     	;# 
   103  0085                     	;# 
   104  0086                     	;# 
   105  0087                     	;# 
   106  0088                     	;# 
   107  0089                     	;# 
   108  008C                     	;# 
   109  008D                     	;# 
   110  008E                     	;# 
   111  008F                     	;# 
   112  0090                     	;# 
   113  0091                     	;# 
   114  0092                     	;# 
   115  0093                     	;# 
   116  0093                     	;# 
   117  0093                     	;# 
   118  0094                     	;# 
   119  0095                     	;# 
   120  0096                     	;# 
   121  0097                     	;# 
   122  0098                     	;# 
   123  0099                     	;# 
   124  009A                     	;# 
   125  009B                     	;# 
   126  009C                     	;# 
   127  009D                     	;# 
   128  009E                     	;# 
   129  009F                     	;# 
   130  0105                     	;# 
   131  0107                     	;# 
   132  0108                     	;# 
   133  0109                     	;# 
   134  010C                     	;# 
   135  010C                     	;# 
   136  010D                     	;# 
   137  010E                     	;# 
   138  010F                     	;# 
   139  0185                     	;# 
   140  0187                     	;# 
   141  0188                     	;# 
   142  0189                     	;# 
   143  018C                     	;# 
   144  018D                     	;# 
   145  0000                     	;# 
   146  0001                     	;# 
   147  0002                     	;# 
   148  0003                     	;# 
   149  0004                     	;# 
   150  0005                     	;# 
   151  0006                     	;# 
   152  0007                     	;# 
   153  0008                     	;# 
   154  0009                     	;# 
   155  000A                     	;# 
   156  000B                     	;# 
   157  000C                     	;# 
   158  000D                     	;# 
   159  000E                     	;# 
   160  000E                     	;# 
   161  000F                     	;# 
   162  0010                     	;# 
   163  0011                     	;# 
   164  0012                     	;# 
   165  0013                     	;# 
   166  0014                     	;# 
   167  0015                     	;# 
   168  0015                     	;# 
   169  0016                     	;# 
   170  0017                     	;# 
   171  0018                     	;# 
   172  0019                     	;# 
   173  001A                     	;# 
   174  001B                     	;# 
   175  001B                     	;# 
   176  001C                     	;# 
   177  001D                     	;# 
   178  001E                     	;# 
   179  001F                     	;# 
   180  0081                     	;# 
   181  0085                     	;# 
   182  0086                     	;# 
   183  0087                     	;# 
   184  0088                     	;# 
   185  0089                     	;# 
   186  008C                     	;# 
   187  008D                     	;# 
   188  008E                     	;# 
   189  008F                     	;# 
   190  0090                     	;# 
   191  0091                     	;# 
   192  0092                     	;# 
   193  0093                     	;# 
   194  0093                     	;# 
   195  0093                     	;# 
   196  0094                     	;# 
   197  0095                     	;# 
   198  0096                     	;# 
   199  0097                     	;# 
   200  0098                     	;# 
   201  0099                     	;# 
   202  009A                     	;# 
   203  009B                     	;# 
   204  009C                     	;# 
   205  009D                     	;# 
   206  009E                     	;# 
   207  009F                     	;# 
   208  0105                     	;# 
   209  0107                     	;# 
   210  0108                     	;# 
   211  0109                     	;# 
   212  010C                     	;# 
   213  010C                     	;# 
   214  010D                     	;# 
   215  010E                     	;# 
   216  010F                     	;# 
   217  0185                     	;# 
   218  0187                     	;# 
   219  0188                     	;# 
   220  0189                     	;# 
   221  018C                     	;# 
   222  018D                     	;# 
   223                           
   224                           	psect	idataBANK0
   225  0695                     __pidataBANK0:
   226                           
   227                           ;initializer for _randx
   228  0695  3401               	retlw	1
   229  0696  3400               	retlw	0
   230  0697  3400               	retlw	0
   231  0698  3400               	retlw	0
   232                           
   233                           ;initializer for _easyFlag
   234  0699  3401               	retlw	1
   235                           
   236                           ;initializer for _longitud
   237  069A  3401               	retlw	1
   238                           
   239                           ;initializer for _cColumna
   240  069B  3401               	retlw	1
   241                           
   242                           ;initializer for _cFila
   243  069C  3401               	retlw	1
   244                           
   245                           	psect	nvBANK0
   246  0062                     __pnvBANK0:
   247  0062                     _x:
   248  0062                     	ds	2
   249  0008                     _PORTD	set	8
   250  0007                     _PORTC	set	7
   251  0006                     _PORTB	set	6
   252  0005                     _PORTA	set	5
   253  0007                     _PORTCbits	set	7
   254  0008                     _PORTDbits	set	8
   255  0006                     _PORTBbits	set	6
   256  000B                     _INTCONbits	set	11
   257  0001                     _TMR0	set	1
   258  0005                     _PORTAbits	set	5
   259  0096                     _IOCB	set	150
   260  0095                     _WPUB	set	149
   261  0088                     _TRISD	set	136
   262  0087                     _TRISC	set	135
   263  0086                     _TRISB	set	134
   264  0085                     _TRISA	set	133
   265  0081                     _OPTION_REGbits	set	129
   266  008F                     _OSCCONbits	set	143
   267  0188                     _ANSEL	set	392
   268  0189                     _ANSELH	set	393
   269                           
   270                           	psect	cinit
   271  0015                     start_initialization:	
   272                           ; #config settings
   273                           
   274  0015                     __initialization:
   275                           
   276                           ; Initialize objects allocated to BANK0
   277  0015  1383               	bcf	3,7	;select IRP bank0
   278  0016  3062               	movlw	low (__pdataBANK0+8)
   279  0017  00FD               	movwf	btemp+-1
   280  0018  3006               	movlw	high __pidataBANK0
   281  0019  00FE               	movwf	btemp
   282  001A  3095               	movlw	low __pidataBANK0
   283  001B  00FF               	movwf	btemp+1
   284  001C  305A               	movlw	low __pdataBANK0
   285  001D  0084               	movwf	4
   286  001E  120A  118A  267D  120A  118A  	fcall	init_ram0
   287                           
   288                           ; Clear objects allocated to BANK0
   289  0023  3041               	movlw	low __pbssBANK0
   290  0024  0084               	movwf	4
   291  0025  305A               	movlw	low (__pbssBANK0+25)
   292  0026  120A  118A  269D  120A  118A  	fcall	clear_ram0
   293  002B                     end_of_initialization:	
   294                           ;End of C runtime variable initialization code
   295                           
   296  002B                     __end_of__initialization:
   297  002B  0183               	clrf	3
   298  002C  120A  118A  2979   	ljmp	_main	;jump to C main() function
   299                           
   300                           	psect	bssBANK0
   301  0041                     __pbssBANK0:
   302  0041                     _coso:
   303  0041                     	ds	2
   304  0043                     _j:
   305  0043                     	ds	2
   306  0045                     _i:
   307  0045                     	ds	2
   308  0047                     _n:
   309  0047                     	ds	2
   310  0049                     _semillaRigth:
   311  0049                     	ds	1
   312  004A                     _semillaLeft:
   313  004A                     	ds	1
   314  004B                     _semillaDown:
   315  004B                     	ds	1
   316  004C                     _semillaUp:
   317  004C                     	ds	1
   318  004D                     _prevFlagDirec:
   319  004D                     	ds	1
   320  004E                     _disparadorComida:
   321  004E                     	ds	1
   322  004F                     _banderaMulti:
   323  004F                     	ds	1
   324  0050                     _rigthFlag:
   325  0050                     	ds	1
   326  0051                     _leftFlag:
   327  0051                     	ds	1
   328  0052                     _downFlag:
   329  0052                     	ds	1
   330  0053                     _upFlag:
   331  0053                     	ds	1
   332  0054                     _hardFlag:
   333  0054                     	ds	1
   334  0055                     _normalFlag:
   335  0055                     	ds	1
   336  0056                     _semillaC:
   337  0056                     	ds	1
   338  0057                     _semillaF:
   339  0057                     	ds	1
   340  0058                     _end:
   341  0058                     	ds	1
   342  0059                     _inicio:
   343  0059                     	ds	1
   344                           
   345                           	psect	dataBANK0
   346  005A                     __pdataBANK0:
   347  005A                     _randx:
   348  005A                     	ds	4
   349  005E                     _easyFlag:
   350  005E                     	ds	1
   351  005F                     _longitud:
   352  005F                     	ds	1
   353  0060                     _cColumna:
   354  0060                     	ds	1
   355  0061                     _cFila:
   356  0061                     	ds	1
   357                           
   358                           	psect	inittext
   359  0679                     init_fetch0:	
   360                           ;	Called with low address in FSR and high address in W
   361                           
   362  0679  087E               	movf	btemp,w
   363  067A  008A               	movwf	10
   364  067B  087F               	movf	btemp+1,w
   365  067C  0082               	movwf	2
   366  067D                     init_ram0:	
   367                           ;Called with:
   368                           ;	high address of idata address in btemp 
   369                           ;	low address of idata address in btemp+1 
   370                           ;	low address of data in FSR
   371                           ;	high address + 1 of data in btemp-1
   372                           
   373  067D  120A  118A  2679  120A  118A  	fcall	init_fetch0
   374  0682  0080               	movwf	0
   375  0683  0A84               	incf	4,f
   376  0684  0804               	movf	4,w
   377  0685  067D               	xorwf	btemp+-1,w
   378  0686  1903               	btfsc	3,2
   379  0687  3400               	retlw	0
   380  0688  0AFF               	incf	btemp+1,f
   381  0689  1903               	btfsc	3,2
   382  068A  0AFE               	incf	btemp,f
   383  068B  2E7D               	goto	init_ram0
   384                           
   385                           	psect	clrtext
   386  069D                     clear_ram0:	
   387                           ;	Called with FSR containing the base address, and
   388                           ;	W with the last address+1
   389                           
   390  069D  0064               	clrwdt	;clear the watchdog before getting into this loop
   391  069E                     clrloop0:
   392  069E  0180               	clrf	0	;clear RAM location pointed to by FSR
   393  069F  0A84               	incf	4,f	;increment pointer
   394  06A0  0604               	xorwf	4,w	;XOR with final address
   395  06A1  1903               	btfsc	3,2	;have we reached the end yet?
   396  06A2  3400               	retlw	0	;all done for this memory range, return
   397  06A3  0604               	xorwf	4,w	;XOR again to restore value
   398  06A4  2E9E               	goto	clrloop0	;do the next byte
   399                           
   400                           	psect	cstackBANK1
   401  00A0                     __pcstackBANK1:
   402  00A0                     ??_main:
   403                           
   404                           ; 1 bytes @ 0x0
   405  00A0                     	ds	3
   406                           
   407                           	psect	cstackCOMMON
   408  0070                     __pcstackCOMMON:
   409  0070                     ?_setup:
   410  0070                     ?_IOCB_interrupt:	
   411                           ; 1 bytes @ 0x0
   412                           
   413  0070                     ?_reiniciar:	
   414                           ; 1 bytes @ 0x0
   415                           
   416  0070                     ?_main:	
   417                           ; 1 bytes @ 0x0
   418                           
   419  0070                     ?_TMR0_interrupt:	
   420                           ; 1 bytes @ 0x0
   421                           
   422  0070                     ?_isr:	
   423                           ; 1 bytes @ 0x0
   424                           
   425  0070                     ?i1_filas:	
   426                           ; 1 bytes @ 0x0
   427                           
   428  0070                     ?i1_columnas:	
   429                           ; 1 bytes @ 0x0
   430                           
   431  0070                     ?i1___lmul:	
   432                           ; 1 bytes @ 0x0
   433                           
   434  0070                     i1filas@value:	
   435                           ; 4 bytes @ 0x0
   436                           
   437  0070                     i1columnas@value:	
   438                           ; 1 bytes @ 0x0
   439                           
   440  0070                     i1___lmul@multiplier:	
   441                           ; 1 bytes @ 0x0
   442                           
   443                           
   444                           ; 4 bytes @ 0x0
   445  0070                     	ds	1
   446  0071                     ??i1_filas:
   447  0071                     ??i1_columnas:	
   448                           ; 1 bytes @ 0x1
   449                           
   450                           
   451                           ; 1 bytes @ 0x1
   452  0071                     	ds	2
   453  0073                     i1filas@fila:
   454  0073                     i1columnas@columna:	
   455                           ; 1 bytes @ 0x3
   456                           
   457                           
   458                           ; 1 bytes @ 0x3
   459  0073                     	ds	1
   460  0074                     ??_TMR0_interrupt:
   461  0074                     i1___lmul@multiplicand:	
   462                           ; 1 bytes @ 0x4
   463                           
   464                           
   465                           ; 4 bytes @ 0x4
   466  0074                     	ds	4
   467  0078                     ??i1___lmul:
   468                           
   469                           ; 1 bytes @ 0x8
   470  0078                     	ds	1
   471  0079                     i1___lmul@product:
   472                           
   473                           ; 4 bytes @ 0x9
   474  0079                     	ds	4
   475  007D                     ??_reiniciar:
   476                           
   477                           ; 1 bytes @ 0xD
   478  007D                     	ds	1
   479                           
   480                           	psect	cstackBANK0
   481  0020                     __pcstackBANK0:
   482  0020                     ?i1_rand:
   483                           
   484                           ; 2 bytes @ 0x0
   485  0020                     	ds	2
   486  0022                     ??i1_rand:
   487                           
   488                           ; 1 bytes @ 0x2
   489  0022                     	ds	5
   490  0027                     ??_IOCB_interrupt:
   491                           
   492                           ; 1 bytes @ 0x7
   493  0027                     	ds	1
   494  0028                     ??_isr:
   495                           
   496                           ; 1 bytes @ 0x8
   497  0028                     	ds	4
   498  002C                     ?_filas:
   499  002C                     ?_columnas:	
   500                           ; 1 bytes @ 0xC
   501                           
   502  002C                     ?_srand:	
   503                           ; 1 bytes @ 0xC
   504                           
   505  002C                     ?___lmul:	
   506                           ; 1 bytes @ 0xC
   507                           
   508  002C                     filas@value:	
   509                           ; 4 bytes @ 0xC
   510                           
   511  002C                     columnas@value:	
   512                           ; 1 bytes @ 0xC
   513                           
   514  002C                     srand@x:	
   515                           ; 1 bytes @ 0xC
   516                           
   517  002C                     ___lmul@multiplier:	
   518                           ; 2 bytes @ 0xC
   519                           
   520                           
   521                           ; 4 bytes @ 0xC
   522  002C                     	ds	1
   523  002D                     ??_filas:
   524  002D                     ??_columnas:	
   525                           ; 1 bytes @ 0xD
   526                           
   527                           
   528                           ; 1 bytes @ 0xD
   529  002D                     	ds	1
   530  002E                     ??_srand:
   531                           
   532                           ; 1 bytes @ 0xE
   533  002E                     	ds	1
   534  002F                     filas@fila:
   535  002F                     columnas@columna:	
   536                           ; 1 bytes @ 0xF
   537                           
   538                           
   539                           ; 1 bytes @ 0xF
   540  002F                     	ds	1
   541  0030                     ___lmul@multiplicand:
   542                           
   543                           ; 4 bytes @ 0x10
   544  0030                     	ds	4
   545  0034                     ??___lmul:
   546                           
   547                           ; 1 bytes @ 0x14
   548  0034                     	ds	1
   549  0035                     ___lmul@product:
   550                           
   551                           ; 4 bytes @ 0x15
   552  0035                     	ds	4
   553  0039                     ?_rand:
   554                           
   555                           ; 2 bytes @ 0x19
   556  0039                     	ds	2
   557  003B                     ??_rand:
   558                           
   559                           ; 1 bytes @ 0x1B
   560  003B                     	ds	5
   561  0040                     ??_setup:
   562                           
   563                           ; 1 bytes @ 0x20
   564  0040                     	ds	1
   565                           
   566                           	psect	maintext
   567  0179                     __pmaintext:	
   568 ;;
   569 ;;Main: autosize = 0, tempsize = 3, incstack = 0, save=0
   570 ;;
   571 ;; *************** function _main *****************
   572 ;; Defined at:
   573 ;;		line 113 in file "main.c"
   574 ;; Parameters:    Size  Location     Type
   575 ;;		None
   576 ;; Auto vars:     Size  Location     Type
   577 ;;		None
   578 ;; Return value:  Size  Location     Type
   579 ;;                  1    wreg      void 
   580 ;; Registers used:
   581 ;;		wreg, fsr0l, fsr0h, status,2, status,0, btemp+1, pclath, cstack
   582 ;; Tracked objects:
   583 ;;		On entry : B00/0
   584 ;;		On exit  : 0/0
   585 ;;		Unchanged: 0/0
   586 ;; Data sizes:     COMMON   BANK0   BANK1   BANK3   BANK2
   587 ;;      Params:         0       0       0       0       0
   588 ;;      Locals:         0       0       0       0       0
   589 ;;      Temps:          0       0       3       0       0
   590 ;;      Totals:         0       0       3       0       0
   591 ;;Total ram usage:        3 bytes
   592 ;; Hardware stack levels required when called:    8
   593 ;; This function calls:
   594 ;;		_rand
   595 ;;		_setup
   596 ;; This function is called by:
   597 ;;		Startup code after reset
   598 ;; This function uses a non-reentrant model
   599 ;;
   600                           
   601                           
   602                           ;psect for function _main
   603  0179                     _main:
   604  0179                     l2010:	
   605                           ;incstack = 0
   606                           ; Regs used in _main: [wreg-fsr0h+status,2+status,0+btemp+1+pclath+cstack]
   607                           
   608                           
   609                           ;main.c: 115:     setup();
   610  0179  120A  118A  2287  120A  118A  	fcall	_setup
   611  017E                     l2012:
   612                           
   613                           ;main.c: 120:         if(!end){
   614  017E  1283               	bcf	3,5	;RP0=0, select bank0
   615  017F  1303               	bcf	3,6	;RP1=0, select bank0
   616  0180  0858               	movf	_end,w
   617  0181  1D03               	btfss	3,2
   618  0182  2984               	goto	u1271
   619  0183  2985               	goto	u1270
   620  0184                     u1271:
   621  0184  2986               	goto	l2016
   622  0185                     u1270:
   623  0185                     l2014:
   624                           
   625                           ;main.c: 121:             PORTAbits.RA0 = 0;
   626  0185  1005               	bcf	5,0	;volatile
   627  0186                     l2016:
   628                           
   629                           ;main.c: 124:         if (inicio){
   630  0186  0859               	movf	_inicio,w
   631  0187  1903               	btfsc	3,2
   632  0188  298A               	goto	u1281
   633  0189  298B               	goto	u1280
   634  018A                     u1281:
   635  018A  297E               	goto	l2012
   636  018B                     u1280:
   637  018B                     l2018:
   638                           
   639                           ;main.c: 126:             if (!end){
   640  018B  0858               	movf	_end,w
   641  018C  1D03               	btfss	3,2
   642  018D  298F               	goto	u1291
   643  018E  2990               	goto	u1290
   644  018F                     u1291:
   645  018F  2A81               	goto	l116
   646  0190                     u1290:
   647  0190                     l2020:
   648                           
   649                           ;main.c: 128:                 if(PORTAbits.RA1==0 && PORTAbits.RA2==1 && PORTAbits.RA3==
      +                          1){
   650  0190  1885               	btfsc	5,1	;volatile
   651  0191  2993               	goto	u1301
   652  0192  2994               	goto	u1300
   653  0193                     u1301:
   654  0193  29AB               	goto	l117
   655  0194                     u1300:
   656  0194                     l2022:
   657  0194  1D05               	btfss	5,2	;volatile
   658  0195  2997               	goto	u1311
   659  0196  2998               	goto	u1310
   660  0197                     u1311:
   661  0197  29AB               	goto	l117
   662  0198                     u1310:
   663  0198                     l2024:
   664  0198  1D85               	btfss	5,3	;volatile
   665  0199  299B               	goto	u1321
   666  019A  299C               	goto	u1320
   667  019B                     u1321:
   668  019B  29AB               	goto	l117
   669  019C                     u1320:
   670  019C                     l2026:
   671                           
   672                           ;main.c: 129:                     _delay((unsigned long)((1000)*(4000000/4000.0)));
   673  019C  3006               	movlw	6
   674  019D  1683               	bsf	3,5	;RP0=1, select bank1
   675  019E  1303               	bcf	3,6	;RP1=0, select bank1
   676  019F  00A2               	movwf	(??_main^(0+128)+2)
   677  01A0  3013               	movlw	19
   678  01A1  00A1               	movwf	(??_main^(0+128)+1)
   679  01A2  30AD               	movlw	173
   680  01A3  00A0               	movwf	??_main^(0+128)
   681  01A4                     u1507:
   682  01A4  0BA0               	decfsz	??_main^(0+128),f
   683  01A5  29A4               	goto	u1507
   684  01A6  0BA1               	decfsz	(??_main^(0+128)+1),f
   685  01A7  29A4               	goto	u1507
   686  01A8  0BA2               	decfsz	(??_main^(0+128)+2),f
   687  01A9  29A4               	goto	u1507
   688                           
   689                           ;main.c: 130:                 }else if(PORTAbits.RA1==1 && PORTAbits.RA2==0 && PORTAbits
      +                          .RA3==1){
   690  01AA  29E1               	goto	l118
   691  01AB                     l117:
   692  01AB  1C85               	btfss	5,1	;volatile
   693  01AC  29AE               	goto	u1331
   694  01AD  29AF               	goto	u1330
   695  01AE                     u1331:
   696  01AE  29C6               	goto	l119
   697  01AF                     u1330:
   698  01AF                     l2028:
   699  01AF  1905               	btfsc	5,2	;volatile
   700  01B0  29B2               	goto	u1341
   701  01B1  29B3               	goto	u1340
   702  01B2                     u1341:
   703  01B2  29C6               	goto	l119
   704  01B3                     u1340:
   705  01B3                     l2030:
   706  01B3  1D85               	btfss	5,3	;volatile
   707  01B4  29B6               	goto	u1351
   708  01B5  29B7               	goto	u1350
   709  01B6                     u1351:
   710  01B6  29C6               	goto	l119
   711  01B7                     u1350:
   712  01B7                     l2032:
   713                           
   714                           ;main.c: 131:                     _delay((unsigned long)((600)*(4000000/4000.0)));
   715  01B7  3004               	movlw	4
   716  01B8  1683               	bsf	3,5	;RP0=1, select bank1
   717  01B9  1303               	bcf	3,6	;RP1=0, select bank1
   718  01BA  00A2               	movwf	(??_main^(0+128)+2)
   719  01BB  300C               	movlw	12
   720  01BC  00A1               	movwf	(??_main^(0+128)+1)
   721  01BD  3033               	movlw	51
   722  01BE  00A0               	movwf	??_main^(0+128)
   723  01BF                     u1517:
   724  01BF  0BA0               	decfsz	??_main^(0+128),f
   725  01C0  29BF               	goto	u1517
   726  01C1  0BA1               	decfsz	(??_main^(0+128)+1),f
   727  01C2  29BF               	goto	u1517
   728  01C3  0BA2               	decfsz	(??_main^(0+128)+2),f
   729  01C4  29BF               	goto	u1517
   730                           
   731                           ;main.c: 132:                 }else if(PORTAbits.RA1==1 && PORTAbits.RA2==1 && PORTAbits
      +                          .RA3==0){
   732  01C5  29E1               	goto	l118
   733  01C6                     l119:
   734  01C6  1C85               	btfss	5,1	;volatile
   735  01C7  29C9               	goto	u1361
   736  01C8  29CA               	goto	u1360
   737  01C9                     u1361:
   738  01C9  29E1               	goto	l118
   739  01CA                     u1360:
   740  01CA                     l2034:
   741  01CA  1D05               	btfss	5,2	;volatile
   742  01CB  29CD               	goto	u1371
   743  01CC  29CE               	goto	u1370
   744  01CD                     u1371:
   745  01CD  29E1               	goto	l118
   746  01CE                     u1370:
   747  01CE                     l2036:
   748  01CE  1985               	btfsc	5,3	;volatile
   749  01CF  29D1               	goto	u1381
   750  01D0  29D2               	goto	u1380
   751  01D1                     u1381:
   752  01D1  29E1               	goto	l118
   753  01D2                     u1380:
   754  01D2                     l2038:
   755                           
   756                           ;main.c: 133:                     _delay((unsigned long)((300)*(4000000/4000.0)));
   757  01D2  3002               	movlw	2
   758  01D3  1683               	bsf	3,5	;RP0=1, select bank1
   759  01D4  1303               	bcf	3,6	;RP1=0, select bank1
   760  01D5  00A2               	movwf	(??_main^(0+128)+2)
   761  01D6  3086               	movlw	134
   762  01D7  00A1               	movwf	(??_main^(0+128)+1)
   763  01D8  3098               	movlw	152
   764  01D9  00A0               	movwf	??_main^(0+128)
   765  01DA                     u1527:
   766  01DA  0BA0               	decfsz	??_main^(0+128),f
   767  01DB  29DA               	goto	u1527
   768  01DC  0BA1               	decfsz	(??_main^(0+128)+1),f
   769  01DD  29DA               	goto	u1527
   770  01DE  0BA2               	decfsz	(??_main^(0+128)+2),f
   771  01DF  29DA               	goto	u1527
   772  01E0  0000               	nop
   773  01E1                     l118:
   774                           
   775                           ;main.c: 138:                 if(cFila == semillaF && cColumna == semillaC){
   776  01E1  1283               	bcf	3,5	;RP0=0, select bank0
   777  01E2  1303               	bcf	3,6	;RP1=0, select bank0
   778  01E3  0861               	movf	_cFila,w
   779  01E4  0657               	xorwf	_semillaF,w
   780  01E5  1D03               	skipz
   781  01E6  29E8               	goto	u1391
   782  01E7  29E9               	goto	u1390
   783  01E8                     u1391:
   784  01E8  2A29               	goto	l2050
   785  01E9                     u1390:
   786  01E9                     l2040:
   787  01E9  0860               	movf	_cColumna,w
   788  01EA  0656               	xorwf	_semillaC,w
   789  01EB  1D03               	skipz
   790  01EC  29EE               	goto	u1401
   791  01ED  29EF               	goto	u1400
   792  01EE                     u1401:
   793  01EE  2A29               	goto	l2050
   794  01EF                     u1400:
   795  01EF                     l2042:
   796                           
   797                           ;main.c: 140:                     semillaF = (rand() % 8);
   798  01EF  120A  118A  2552  120A  118A  	fcall	_rand
   799  01F4  1283               	bcf	3,5	;RP0=0, select bank0
   800  01F5  1303               	bcf	3,6	;RP1=0, select bank0
   801  01F6  0839               	movf	?_rand,w
   802  01F7  3907               	andlw	7
   803  01F8  1683               	bsf	3,5	;RP0=1, select bank1
   804  01F9  1303               	bcf	3,6	;RP1=0, select bank1
   805  01FA  00A0               	movwf	??_main^(0+128)
   806  01FB  0820               	movf	??_main^(0+128),w
   807  01FC  1283               	bcf	3,5	;RP0=0, select bank0
   808  01FD  1303               	bcf	3,6	;RP1=0, select bank0
   809  01FE  00D7               	movwf	_semillaF
   810                           
   811                           ;main.c: 141:                     semillaC = (rand() % 8);
   812  01FF  120A  118A  2552  120A  118A  	fcall	_rand
   813  0204  1283               	bcf	3,5	;RP0=0, select bank0
   814  0205  1303               	bcf	3,6	;RP1=0, select bank0
   815  0206  0839               	movf	?_rand,w
   816  0207  3907               	andlw	7
   817  0208  1683               	bsf	3,5	;RP0=1, select bank1
   818  0209  1303               	bcf	3,6	;RP1=0, select bank1
   819  020A  00A0               	movwf	??_main^(0+128)
   820  020B  0820               	movf	??_main^(0+128),w
   821  020C  1283               	bcf	3,5	;RP0=0, select bank0
   822  020D  1303               	bcf	3,6	;RP1=0, select bank0
   823  020E  00D6               	movwf	_semillaC
   824  020F                     l2044:
   825                           
   826                           ;main.c: 143:                     semillaF = semillaF + 1;
   827  020F  0857               	movf	_semillaF,w
   828  0210  3E01               	addlw	1
   829  0211  1683               	bsf	3,5	;RP0=1, select bank1
   830  0212  1303               	bcf	3,6	;RP1=0, select bank1
   831  0213  00A0               	movwf	??_main^(0+128)
   832  0214  0820               	movf	??_main^(0+128),w
   833  0215  1283               	bcf	3,5	;RP0=0, select bank0
   834  0216  1303               	bcf	3,6	;RP1=0, select bank0
   835  0217  00D7               	movwf	_semillaF
   836  0218                     l2046:
   837                           
   838                           ;main.c: 144:                     semillaC = semillaC + 1;
   839  0218  0856               	movf	_semillaC,w
   840  0219  3E01               	addlw	1
   841  021A  1683               	bsf	3,5	;RP0=1, select bank1
   842  021B  1303               	bcf	3,6	;RP1=0, select bank1
   843  021C  00A0               	movwf	??_main^(0+128)
   844  021D  0820               	movf	??_main^(0+128),w
   845  021E  1283               	bcf	3,5	;RP0=0, select bank0
   846  021F  1303               	bcf	3,6	;RP1=0, select bank0
   847  0220  00D6               	movwf	_semillaC
   848  0221                     l2048:
   849                           
   850                           ;main.c: 145:                     longitud ++;
   851  0221  3001               	movlw	1
   852  0222  1683               	bsf	3,5	;RP0=1, select bank1
   853  0223  1303               	bcf	3,6	;RP1=0, select bank1
   854  0224  00A0               	movwf	??_main^(0+128)
   855  0225  0820               	movf	??_main^(0+128),w
   856  0226  1283               	bcf	3,5	;RP0=0, select bank0
   857  0227  1303               	bcf	3,6	;RP1=0, select bank0
   858  0228  07DF               	addwf	_longitud,f
   859  0229                     l2050:
   860                           
   861                           ;main.c: 149:                 if(longitud>1){
   862  0229  3002               	movlw	2
   863  022A  025F               	subwf	_longitud,w
   864  022B  1C03               	skipc
   865  022C  2A2E               	goto	u1411
   866  022D  2A2F               	goto	u1410
   867  022E                     u1411:
   868  022E  2A33               	goto	l2054
   869  022F                     u1410:
   870  022F                     l2052:
   871                           
   872                           ;main.c: 150:                         coso = 1;
   873  022F  3001               	movlw	1
   874  0230  00C1               	movwf	_coso
   875  0231  3000               	movlw	0
   876  0232  00C2               	movwf	_coso+1
   877  0233                     l2054:
   878                           
   879                           ;main.c: 153:                 if(upFlag){
   880  0233  0853               	movf	_upFlag,w
   881  0234  1903               	btfsc	3,2
   882  0235  2A37               	goto	u1421
   883  0236  2A38               	goto	u1420
   884  0237                     u1421:
   885  0237  2A3E               	goto	l2064
   886  0238                     u1420:
   887  0238                     l2056:
   888                           
   889                           ;main.c: 156:                     cFila --;
   890  0238  3001               	movlw	1
   891  0239  02E1               	subwf	_cFila,f
   892  023A                     l2058:
   893                           
   894                           ;main.c: 160:                     semillaDown = 0;
   895  023A  01CB               	clrf	_semillaDown
   896  023B                     l2060:
   897                           
   898                           ;main.c: 161:                     semillaLeft = 0;
   899  023B  01CA               	clrf	_semillaLeft
   900  023C                     l2062:
   901                           
   902                           ;main.c: 162:                     semillaRigth =0 ;
   903  023C  01C9               	clrf	_semillaRigth
   904                           
   905                           ;main.c: 171:                 }else if(downFlag){
   906  023D  2A68               	goto	l2094
   907  023E                     l2064:
   908  023E  0852               	movf	_downFlag,w
   909  023F  1903               	btfsc	3,2
   910  0240  2A42               	goto	u1431
   911  0241  2A43               	goto	u1430
   912  0242                     u1431:
   913  0242  2A4D               	goto	l2074
   914  0243                     u1430:
   915  0243                     l2066:
   916                           
   917                           ;main.c: 174:                     cFila ++;
   918  0243  3001               	movlw	1
   919  0244  1683               	bsf	3,5	;RP0=1, select bank1
   920  0245  1303               	bcf	3,6	;RP1=0, select bank1
   921  0246  00A0               	movwf	??_main^(0+128)
   922  0247  0820               	movf	??_main^(0+128),w
   923  0248  1283               	bcf	3,5	;RP0=0, select bank0
   924  0249  1303               	bcf	3,6	;RP1=0, select bank0
   925  024A  07E1               	addwf	_cFila,f
   926  024B                     l2068:
   927                           
   928                           ;main.c: 177:                     semillaUp = 0;
   929  024B  01CC               	clrf	_semillaUp
   930  024C  2A3B               	goto	l2060
   931  024D                     l2074:
   932  024D  0851               	movf	_leftFlag,w
   933  024E  1903               	btfsc	3,2
   934  024F  2A51               	goto	u1441
   935  0250  2A52               	goto	u1440
   936  0251                     u1441:
   937  0251  2A57               	goto	l2084
   938  0252                     u1440:
   939  0252                     l2076:
   940                           
   941                           ;main.c: 191:                     cColumna --;
   942  0252  3001               	movlw	1
   943  0253  02E0               	subwf	_cColumna,f
   944  0254                     l2078:
   945                           
   946                           ;main.c: 194:                     semillaUp = 0;
   947  0254  01CC               	clrf	_semillaUp
   948  0255                     l2080:
   949                           
   950                           ;main.c: 195:                     semillaDown = 0;
   951  0255  01CB               	clrf	_semillaDown
   952  0256  2A3C               	goto	l2062
   953  0257                     l2084:
   954  0257  0850               	movf	_rigthFlag,w
   955  0258  1903               	btfsc	3,2
   956  0259  2A5B               	goto	u1451
   957  025A  2A5C               	goto	u1450
   958  025B                     u1451:
   959  025B  2A68               	goto	l127
   960  025C                     u1450:
   961  025C                     l2086:
   962                           
   963                           ;main.c: 208:                     cColumna ++;
   964  025C  3001               	movlw	1
   965  025D  1683               	bsf	3,5	;RP0=1, select bank1
   966  025E  1303               	bcf	3,6	;RP1=0, select bank1
   967  025F  00A0               	movwf	??_main^(0+128)
   968  0260  0820               	movf	??_main^(0+128),w
   969  0261  1283               	bcf	3,5	;RP0=0, select bank0
   970  0262  1303               	bcf	3,6	;RP1=0, select bank0
   971  0263  07E0               	addwf	_cColumna,f
   972  0264                     l2088:
   973                           
   974                           ;main.c: 211:                     semillaUp = 0;
   975  0264  01CC               	clrf	_semillaUp
   976  0265                     l2090:
   977                           
   978                           ;main.c: 212:                     semillaDown = 0;
   979  0265  01CB               	clrf	_semillaDown
   980  0266                     l2092:
   981                           
   982                           ;main.c: 213:                     semillaLeft =0 ;
   983  0266  01CA               	clrf	_semillaLeft
   984  0267  2A68               	goto	l2094
   985  0268                     l127:
   986  0268                     l2094:
   987                           
   988                           ;main.c: 224:                 if(cColumna == 9 || cFila == 9 || cColumna == 0 || cFila =
      +                          = 0){
   989  0268  3009               	movlw	9
   990  0269  0660               	xorwf	_cColumna,w
   991  026A  1903               	btfsc	3,2
   992  026B  2A6D               	goto	u1461
   993  026C  2A6E               	goto	u1460
   994  026D                     u1461:
   995  026D  2A7E               	goto	l133
   996  026E                     u1460:
   997  026E                     l2096:
   998  026E  3009               	movlw	9
   999  026F  0661               	xorwf	_cFila,w
  1000  0270  1903               	btfsc	3,2
  1001  0271  2A73               	goto	u1471
  1002  0272  2A74               	goto	u1470
  1003  0273                     u1471:
  1004  0273  2A7E               	goto	l133
  1005  0274                     u1470:
  1006  0274                     l2098:
  1007  0274  0860               	movf	_cColumna,w
  1008  0275  1903               	btfsc	3,2
  1009  0276  2A78               	goto	u1481
  1010  0277  2A79               	goto	u1480
  1011  0278                     u1481:
  1012  0278  2A7E               	goto	l133
  1013  0279                     u1480:
  1014  0279                     l2100:
  1015  0279  0861               	movf	_cFila,w
  1016  027A  1D03               	btfss	3,2
  1017  027B  2A7D               	goto	u1491
  1018  027C  2A7E               	goto	u1490
  1019  027D                     u1491:
  1020  027D  2A83               	goto	l115
  1021  027E                     u1490:
  1022  027E                     l133:
  1023                           
  1024                           ;main.c: 225:                     end = 1;
  1025  027E  01D8               	clrf	_end
  1026  027F  0AD8               	incf	_end,f
  1027  0280  297E               	goto	l2012
  1028  0281                     l116:
  1029                           
  1030                           ;main.c: 230:                 PORTAbits.RA0 = 1;
  1031  0281  1405               	bsf	5,0	;volatile
  1032  0282  297E               	goto	l2012
  1033  0283                     l115:	
  1034                           ;main.c: 234:         }
  1035                           
  1036  0283  297E               	goto	l2012
  1037  0284  120A  118A  2812   	ljmp	start
  1038  0287                     __end_of_main:
  1039                           
  1040                           	psect	text1
  1041  0287                     __ptext1:	
  1042 ;; *************** function _setup *****************
  1043 ;; Defined at:
  1044 ;;		line 499 in file "main.c"
  1045 ;; Parameters:    Size  Location     Type
  1046 ;;		None
  1047 ;; Auto vars:     Size  Location     Type
  1048 ;;		None
  1049 ;; Return value:  Size  Location     Type
  1050 ;;                  1    wreg      void 
  1051 ;; Registers used:
  1052 ;;		wreg, fsr0l, fsr0h, status,2, status,0, btemp+1, pclath, cstack
  1053 ;; Tracked objects:
  1054 ;;		On entry : 0/0
  1055 ;;		On exit  : 0/0
  1056 ;;		Unchanged: 0/0
  1057 ;; Data sizes:     COMMON   BANK0   BANK1   BANK3   BANK2
  1058 ;;      Params:         0       0       0       0       0
  1059 ;;      Locals:         0       0       0       0       0
  1060 ;;      Temps:          0       1       0       0       0
  1061 ;;      Totals:         0       1       0       0       0
  1062 ;;Total ram usage:        1 bytes
  1063 ;; Hardware stack levels used:    1
  1064 ;; Hardware stack levels required when called:    7
  1065 ;; This function calls:
  1066 ;;		_columnas
  1067 ;;		_filas
  1068 ;;		_rand
  1069 ;;		_srand
  1070 ;; This function is called by:
  1071 ;;		_main
  1072 ;; This function uses a non-reentrant model
  1073 ;;
  1074                           
  1075                           
  1076                           ;psect for function _setup
  1077  0287                     _setup:
  1078  0287                     l1588:	
  1079                           ;incstack = 0
  1080                           ; Regs used in _setup: [wreg-fsr0h+status,2+status,0+btemp+1+pclath+cstack]
  1081                           
  1082                           
  1083                           ;main.c: 502:     OSCCONbits.IRCF = 0x06;
  1084  0287  1683               	bsf	3,5	;RP0=1, select bank1
  1085  0288  1303               	bcf	3,6	;RP1=0, select bank1
  1086  0289  080F               	movf	15,w	;volatile
  1087  028A  398F               	andlw	-113
  1088  028B  3860               	iorlw	96
  1089  028C  008F               	movwf	15	;volatile
  1090  028D                     l1590:
  1091                           
  1092                           ;main.c: 503:     OSCCONbits.SCS = 1;
  1093  028D  140F               	bsf	15,0	;volatile
  1094  028E                     l1592:
  1095                           
  1096                           ;main.c: 508:     INTCONbits.GIE = 1;
  1097  028E  178B               	bsf	11,7	;volatile
  1098  028F                     l1594:
  1099                           
  1100                           ;main.c: 510:     INTCONbits.RBIE = 1;
  1101  028F  158B               	bsf	11,3	;volatile
  1102  0290                     l1596:
  1103                           
  1104                           ;main.c: 512:     INTCONbits.T0IE = 1;
  1105  0290  168B               	bsf	11,5	;volatile
  1106  0291                     l1598:
  1107                           
  1108                           ;main.c: 513:     INTCONbits.T0IF = 0;
  1109  0291  110B               	bcf	11,2	;volatile
  1110  0292                     l1600:
  1111                           
  1112                           ;main.c: 517:     OPTION_REGbits.T0CS = 0;
  1113  0292  1281               	bcf	1,5	;volatile
  1114  0293                     l1602:
  1115                           
  1116                           ;main.c: 518:     OPTION_REGbits.PSA = 0;
  1117  0293  1181               	bcf	1,3	;volatile
  1118  0294                     l1604:
  1119                           
  1120                           ;main.c: 519:     OPTION_REGbits.PS2 = 1;
  1121  0294  1501               	bsf	1,2	;volatile
  1122  0295                     l1606:
  1123                           
  1124                           ;main.c: 520:     OPTION_REGbits.PS1 = 1;
  1125  0295  1481               	bsf	1,1	;volatile
  1126  0296                     l1608:
  1127                           
  1128                           ;main.c: 521:     OPTION_REGbits.PS0 = 1;
  1129  0296  1401               	bsf	1,0	;volatile
  1130  0297                     l1610:
  1131                           
  1132                           ;main.c: 523:     TMR0 = 247;
  1133  0297  30F7               	movlw	247
  1134  0298  1283               	bcf	3,5	;RP0=0, select bank0
  1135  0299  1303               	bcf	3,6	;RP1=0, select bank0
  1136  029A  0081               	movwf	1	;volatile
  1137  029B                     l1612:
  1138                           
  1139                           ;main.c: 524:     INTCONbits.T0IF = 0;
  1140  029B  110B               	bcf	11,2	;volatile
  1141  029C                     l1614:
  1142                           
  1143                           ;main.c: 528:     ANSELH = 0;
  1144  029C  1683               	bsf	3,5	;RP0=1, select bank3
  1145  029D  1703               	bsf	3,6	;RP1=1, select bank3
  1146  029E  0189               	clrf	9	;volatile
  1147  029F                     l1616:
  1148                           
  1149                           ;main.c: 529:     ANSEL = 0;
  1150  029F  0188               	clrf	8	;volatile
  1151  02A0                     l1618:
  1152                           
  1153                           ;main.c: 531:     TRISA = 0B00001110;
  1154  02A0  300E               	movlw	14
  1155  02A1  1683               	bsf	3,5	;RP0=1, select bank1
  1156  02A2  1303               	bcf	3,6	;RP1=0, select bank1
  1157  02A3  0085               	movwf	5	;volatile
  1158  02A4                     l1620:
  1159                           
  1160                           ;main.c: 532:     TRISB = 0x0F;
  1161  02A4  300F               	movlw	15
  1162  02A5  0086               	movwf	6	;volatile
  1163  02A6                     l1622:
  1164                           
  1165                           ;main.c: 533:     TRISC = 0x00;
  1166  02A6  0187               	clrf	7	;volatile
  1167  02A7                     l1624:
  1168                           
  1169                           ;main.c: 534:     TRISD = 0x00;
  1170  02A7  0188               	clrf	8	;volatile
  1171  02A8                     l1626:
  1172                           
  1173                           ;main.c: 536:     OPTION_REGbits.nRBPU = 0 ;
  1174  02A8  1381               	bcf	1,7	;volatile
  1175  02A9                     l1628:
  1176                           
  1177                           ;main.c: 537:     WPUB = 0x0F;
  1178  02A9  300F               	movlw	15
  1179  02AA  0095               	movwf	21	;volatile
  1180  02AB                     l1630:
  1181                           
  1182                           ;main.c: 539:     PORTA = 0x00;
  1183  02AB  1283               	bcf	3,5	;RP0=0, select bank0
  1184  02AC  1303               	bcf	3,6	;RP1=0, select bank0
  1185  02AD  0185               	clrf	5	;volatile
  1186  02AE                     l1632:
  1187                           
  1188                           ;main.c: 540:     PORTB = 0x0F;
  1189  02AE  300F               	movlw	15
  1190  02AF  0086               	movwf	6	;volatile
  1191  02B0                     l1634:
  1192                           
  1193                           ;main.c: 541:     PORTC= 0x00;
  1194  02B0  0187               	clrf	7	;volatile
  1195  02B1                     l1636:
  1196                           
  1197                           ;main.c: 542:     PORTD= 0x00;
  1198  02B1  0188               	clrf	8	;volatile
  1199  02B2                     l1638:
  1200                           
  1201                           ;main.c: 544:     INTCONbits.RBIF = 0;
  1202  02B2  100B               	bcf	11,0	;volatile
  1203  02B3                     l1640:
  1204                           
  1205                           ;main.c: 546:     IOCB = 0x0F;
  1206  02B3  300F               	movlw	15
  1207  02B4  1683               	bsf	3,5	;RP0=1, select bank1
  1208  02B5  1303               	bcf	3,6	;RP1=0, select bank1
  1209  02B6  0096               	movwf	22	;volatile
  1210  02B7                     l1642:
  1211                           
  1212                           ;main.c: 551:     for (x = 1; x < 9; x++) {
  1213  02B7  3001               	movlw	1
  1214  02B8  1283               	bcf	3,5	;RP0=0, select bank0
  1215  02B9  1303               	bcf	3,6	;RP1=0, select bank0
  1216  02BA  00E2               	movwf	_x
  1217  02BB  3000               	movlw	0
  1218  02BC  00E3               	movwf	_x+1
  1219  02BD                     l1644:
  1220  02BD  0863               	movf	_x+1,w
  1221  02BE  3A80               	xorlw	128
  1222  02BF  00FF               	movwf	btemp+1
  1223  02C0  3080               	movlw	128
  1224  02C1  027F               	subwf	btemp+1,w
  1225  02C2  1D03               	skipz
  1226  02C3  2AC6               	goto	u765
  1227  02C4  3009               	movlw	9
  1228  02C5  0262               	subwf	_x,w
  1229  02C6                     u765:
  1230  02C6  1C03               	skipc
  1231  02C7  2AC9               	goto	u761
  1232  02C8  2ACA               	goto	u760
  1233  02C9                     u761:
  1234  02C9  2ACB               	goto	l1648
  1235  02CA                     u760:
  1236  02CA  2ADD               	goto	l1654
  1237  02CB                     l1648:
  1238                           
  1239                           ;main.c: 552:         filas(x,0);
  1240  02CB  1283               	bcf	3,5	;RP0=0, select bank0
  1241  02CC  1303               	bcf	3,6	;RP1=0, select bank0
  1242  02CD  01AC               	clrf	filas@value
  1243  02CE  0862               	movf	_x,w
  1244  02CF  120A  118A  245C  120A  118A  	fcall	_filas
  1245  02D4                     l1650:
  1246                           
  1247                           ;main.c: 553:     }
  1248  02D4  3001               	movlw	1
  1249  02D5  1283               	bcf	3,5	;RP0=0, select bank0
  1250  02D6  1303               	bcf	3,6	;RP1=0, select bank0
  1251  02D7  07E2               	addwf	_x,f
  1252  02D8  1803               	skipnc
  1253  02D9  0AE3               	incf	_x+1,f
  1254  02DA  3000               	movlw	0
  1255  02DB  07E3               	addwf	_x+1,f
  1256  02DC  2ABD               	goto	l1644
  1257  02DD                     l1654:
  1258                           
  1259                           ;main.c: 556:     for (x = 1; x < 9; x++) {
  1260  02DD  3001               	movlw	1
  1261  02DE  1283               	bcf	3,5	;RP0=0, select bank0
  1262  02DF  1303               	bcf	3,6	;RP1=0, select bank0
  1263  02E0  00E2               	movwf	_x
  1264  02E1  3000               	movlw	0
  1265  02E2  00E3               	movwf	_x+1
  1266  02E3                     l1656:
  1267  02E3  0863               	movf	_x+1,w
  1268  02E4  3A80               	xorlw	128
  1269  02E5  00FF               	movwf	btemp+1
  1270  02E6  3080               	movlw	128
  1271  02E7  027F               	subwf	btemp+1,w
  1272  02E8  1D03               	skipz
  1273  02E9  2AEC               	goto	u775
  1274  02EA  3009               	movlw	9
  1275  02EB  0262               	subwf	_x,w
  1276  02EC                     u775:
  1277  02EC  1C03               	skipc
  1278  02ED  2AEF               	goto	u771
  1279  02EE  2AF0               	goto	u770
  1280  02EF                     u771:
  1281  02EF  2AF1               	goto	l1660
  1282  02F0                     u770:
  1283  02F0  2B04               	goto	l1666
  1284  02F1                     l1660:
  1285                           
  1286                           ;main.c: 557:         columnas(x,1);
  1287  02F1  1283               	bcf	3,5	;RP0=0, select bank0
  1288  02F2  1303               	bcf	3,6	;RP1=0, select bank0
  1289  02F3  01AC               	clrf	columnas@value
  1290  02F4  0AAC               	incf	columnas@value,f
  1291  02F5  0862               	movf	_x,w
  1292  02F6  120A  118A  24B3  120A  118A  	fcall	_columnas
  1293  02FB                     l1662:
  1294                           
  1295                           ;main.c: 558:     }
  1296  02FB  3001               	movlw	1
  1297  02FC  1283               	bcf	3,5	;RP0=0, select bank0
  1298  02FD  1303               	bcf	3,6	;RP1=0, select bank0
  1299  02FE  07E2               	addwf	_x,f
  1300  02FF  1803               	skipnc
  1301  0300  0AE3               	incf	_x+1,f
  1302  0301  3000               	movlw	0
  1303  0302  07E3               	addwf	_x+1,f
  1304  0303  2AE3               	goto	l1656
  1305  0304                     l1666:
  1306                           
  1307                           ;main.c: 560:     srand(8);
  1308  0304  3008               	movlw	8
  1309  0305  1283               	bcf	3,5	;RP0=0, select bank0
  1310  0306  1303               	bcf	3,6	;RP1=0, select bank0
  1311  0307  00AC               	movwf	srand@x
  1312  0308  3000               	movlw	0
  1313  0309  00AD               	movwf	srand@x+1
  1314  030A  120A  118A  268C  120A  118A  	fcall	_srand
  1315                           
  1316                           ;main.c: 563:     semillaF = (rand() % 8);
  1317  030F  120A  118A  2552  120A  118A  	fcall	_rand
  1318  0314  1283               	bcf	3,5	;RP0=0, select bank0
  1319  0315  1303               	bcf	3,6	;RP1=0, select bank0
  1320  0316  0839               	movf	?_rand,w
  1321  0317  3907               	andlw	7
  1322  0318  00C0               	movwf	??_setup
  1323  0319  0840               	movf	??_setup,w
  1324  031A  00D7               	movwf	_semillaF
  1325                           
  1326                           ;main.c: 564:     semillaC = (rand() % 8);
  1327  031B  120A  118A  2552  120A  118A  	fcall	_rand
  1328  0320  1283               	bcf	3,5	;RP0=0, select bank0
  1329  0321  1303               	bcf	3,6	;RP1=0, select bank0
  1330  0322  0839               	movf	?_rand,w
  1331  0323  3907               	andlw	7
  1332  0324  00C0               	movwf	??_setup
  1333  0325  0840               	movf	??_setup,w
  1334  0326  00D6               	movwf	_semillaC
  1335  0327                     l1668:
  1336                           
  1337                           ;main.c: 566:     semillaF = semillaF + 1;
  1338  0327  0857               	movf	_semillaF,w
  1339  0328  3E01               	addlw	1
  1340  0329  00C0               	movwf	??_setup
  1341  032A  0840               	movf	??_setup,w
  1342  032B  00D7               	movwf	_semillaF
  1343  032C                     l1670:
  1344                           
  1345                           ;main.c: 567:     semillaC = semillaC + 1;
  1346  032C  0856               	movf	_semillaC,w
  1347  032D  3E01               	addlw	1
  1348  032E  00C0               	movwf	??_setup
  1349  032F  0840               	movf	??_setup,w
  1350  0330  00D6               	movwf	_semillaC
  1351  0331                     l226:
  1352  0331  0008               	return
  1353  0332                     __end_of_setup:
  1354                           
  1355                           	psect	text2
  1356  068C                     __ptext2:	
  1357 ;; *************** function _srand *****************
  1358 ;; Defined at:
  1359 ;;		line 6 in file "C:\Program Files\Microchip\xc8\v2.31\pic\sources\c90\common\rand.c"
  1360 ;; Parameters:    Size  Location     Type
  1361 ;;  x               2   12[BANK0 ] unsigned int 
  1362 ;; Auto vars:     Size  Location     Type
  1363 ;;		None
  1364 ;; Return value:  Size  Location     Type
  1365 ;;                  1    wreg      void 
  1366 ;; Registers used:
  1367 ;;		wreg
  1368 ;; Tracked objects:
  1369 ;;		On entry : 0/0
  1370 ;;		On exit  : 0/0
  1371 ;;		Unchanged: 0/0
  1372 ;; Data sizes:     COMMON   BANK0   BANK1   BANK3   BANK2
  1373 ;;      Params:         0       2       0       0       0
  1374 ;;      Locals:         0       0       0       0       0
  1375 ;;      Temps:          0       0       0       0       0
  1376 ;;      Totals:         0       2       0       0       0
  1377 ;;Total ram usage:        2 bytes
  1378 ;; Hardware stack levels used:    1
  1379 ;; Hardware stack levels required when called:    5
  1380 ;; This function calls:
  1381 ;;		Nothing
  1382 ;; This function is called by:
  1383 ;;		_setup
  1384 ;; This function uses a non-reentrant model
  1385 ;;
  1386                           
  1387                           
  1388                           ;psect for function _srand
  1389  068C                     _srand:
  1390  068C                     l1534:	
  1391                           ;incstack = 0
  1392                           ; Regs used in _srand: [wreg]
  1393                           
  1394  068C  1283               	bcf	3,5	;RP0=0, select bank0
  1395  068D  1303               	bcf	3,6	;RP1=0, select bank0
  1396  068E  082C               	movf	srand@x,w
  1397  068F  00DA               	movwf	_randx
  1398  0690  082D               	movf	srand@x+1,w
  1399  0691  00DB               	movwf	_randx+1
  1400  0692  01DC               	clrf	_randx+2
  1401  0693  01DD               	clrf	_randx+3
  1402  0694                     l765:
  1403  0694  0008               	return
  1404  0695                     __end_of_srand:
  1405                           
  1406                           	psect	text3
  1407  0552                     __ptext3:	
  1408 ;; *************** function _rand *****************
  1409 ;; Defined at:
  1410 ;;		line 12 in file "C:\Program Files\Microchip\xc8\v2.31\pic\sources\c90\common\rand.c"
  1411 ;; Parameters:    Size  Location     Type
  1412 ;;		None
  1413 ;; Auto vars:     Size  Location     Type
  1414 ;;		None
  1415 ;; Return value:  Size  Location     Type
  1416 ;;                  2   25[BANK0 ] int 
  1417 ;; Registers used:
  1418 ;;		wreg, status,2, status,0, pclath, cstack
  1419 ;; Tracked objects:
  1420 ;;		On entry : 0/0
  1421 ;;		On exit  : 0/0
  1422 ;;		Unchanged: 0/0
  1423 ;; Data sizes:     COMMON   BANK0   BANK1   BANK3   BANK2
  1424 ;;      Params:         0       2       0       0       0
  1425 ;;      Locals:         0       0       0       0       0
  1426 ;;      Temps:          0       5       0       0       0
  1427 ;;      Totals:         0       7       0       0       0
  1428 ;;Total ram usage:        7 bytes
  1429 ;; Hardware stack levels used:    1
  1430 ;; Hardware stack levels required when called:    6
  1431 ;; This function calls:
  1432 ;;		___lmul
  1433 ;; This function is called by:
  1434 ;;		_main
  1435 ;;		_setup
  1436 ;; This function uses a non-reentrant model
  1437 ;;
  1438                           
  1439                           
  1440                           ;psect for function _rand
  1441  0552                     _rand:
  1442  0552                     l1454:	
  1443                           ;incstack = 0
  1444                           ; Regs used in _rand: [wreg+status,2+status,0+pclath+cstack]
  1445                           
  1446  0552  1283               	bcf	3,5	;RP0=0, select bank0
  1447  0553  1303               	bcf	3,6	;RP1=0, select bank0
  1448  0554  085D               	movf	_randx+3,w
  1449  0555  00AF               	movwf	___lmul@multiplier+3
  1450  0556  085C               	movf	_randx+2,w
  1451  0557  00AE               	movwf	___lmul@multiplier+2
  1452  0558  085B               	movf	_randx+1,w
  1453  0559  00AD               	movwf	___lmul@multiplier+1
  1454  055A  085A               	movf	_randx,w
  1455  055B  00AC               	movwf	___lmul@multiplier
  1456  055C  3041               	movlw	65
  1457  055D  00B3               	movwf	___lmul@multiplicand+3
  1458  055E  30C6               	movlw	198
  1459  055F  00B2               	movwf	___lmul@multiplicand+2
  1460  0560  304E               	movlw	78
  1461  0561  00B1               	movwf	___lmul@multiplicand+1
  1462  0562  306D               	movlw	109
  1463  0563  00B0               	movwf	___lmul@multiplicand
  1464  0564  120A  118A  250A  120A  118A  	fcall	___lmul
  1465  0569  1283               	bcf	3,5	;RP0=0, select bank0
  1466  056A  1303               	bcf	3,6	;RP1=0, select bank0
  1467  056B  082F               	movf	?___lmul+3,w
  1468  056C  00DD               	movwf	_randx+3
  1469  056D  082E               	movf	?___lmul+2,w
  1470  056E  00DC               	movwf	_randx+2
  1471  056F  082D               	movf	?___lmul+1,w
  1472  0570  00DB               	movwf	_randx+1
  1473  0571  082C               	movf	?___lmul,w
  1474  0572  00DA               	movwf	_randx
  1475  0573                     l1456:
  1476  0573  3039               	movlw	57
  1477  0574  07DA               	addwf	_randx,f
  1478  0575  3030               	movlw	48
  1479  0576  1803               	skipnc
  1480  0577  3031               	movlw	49
  1481  0578  07DB               	addwf	_randx+1,f
  1482  0579  3000               	movlw	0
  1483  057A  1803               	skipnc
  1484  057B  3001               	movlw	1
  1485  057C  07DC               	addwf	_randx+2,f
  1486  057D  3000               	movlw	0
  1487  057E  1803               	skipnc
  1488  057F  3001               	movlw	1
  1489  0580  07DD               	addwf	_randx+3,f
  1490  0581                     l1458:
  1491  0581  085A               	movf	_randx,w
  1492  0582  00BB               	movwf	??_rand
  1493  0583  085B               	movf	_randx+1,w
  1494  0584  00BC               	movwf	??_rand+1
  1495  0585  085C               	movf	_randx+2,w
  1496  0586  00BD               	movwf	??_rand+2
  1497  0587  085D               	movf	_randx+3,w
  1498  0588  00BE               	movwf	??_rand+3
  1499  0589  3010               	movlw	16
  1500  058A  00BF               	movwf	??_rand+4
  1501  058B                     u755:
  1502  058B  0D3E               	rlf	??_rand+3,w
  1503  058C  0CBE               	rrf	??_rand+3,f
  1504  058D  0CBD               	rrf	??_rand+2,f
  1505  058E  0CBC               	rrf	??_rand+1,f
  1506  058F  0CBB               	rrf	??_rand,f
  1507  0590                     u750:
  1508  0590  0BBF               	decfsz	??_rand+4,f
  1509  0591  2D8B               	goto	u755
  1510  0592  30FF               	movlw	255
  1511  0593  053B               	andwf	??_rand,w
  1512  0594  00B9               	movwf	?_rand
  1513  0595  307F               	movlw	127
  1514  0596  053C               	andwf	??_rand+1,w
  1515  0597  00BA               	movwf	?_rand+1
  1516  0598                     l768:
  1517  0598  0008               	return
  1518  0599                     __end_of_rand:
  1519                           
  1520                           	psect	text4
  1521  050A                     __ptext4:	
  1522 ;; *************** function ___lmul *****************
  1523 ;; Defined at:
  1524 ;;		line 15 in file "C:\Program Files\Microchip\xc8\v2.31\pic\sources\c90\common\Umul32.c"
  1525 ;; Parameters:    Size  Location     Type
  1526 ;;  multiplier      4   12[BANK0 ] unsigned long 
  1527 ;;  multiplicand    4   16[BANK0 ] unsigned long 
  1528 ;; Auto vars:     Size  Location     Type
  1529 ;;  product         4   21[BANK0 ] unsigned long 
  1530 ;; Return value:  Size  Location     Type
  1531 ;;                  4   12[BANK0 ] unsigned long 
  1532 ;; Registers used:
  1533 ;;		wreg, status,2, status,0
  1534 ;; Tracked objects:
  1535 ;;		On entry : 0/0
  1536 ;;		On exit  : 0/0
  1537 ;;		Unchanged: 0/0
  1538 ;; Data sizes:     COMMON   BANK0   BANK1   BANK3   BANK2
  1539 ;;      Params:         0       8       0       0       0
  1540 ;;      Locals:         0       4       0       0       0
  1541 ;;      Temps:          0       1       0       0       0
  1542 ;;      Totals:         0      13       0       0       0
  1543 ;;Total ram usage:       13 bytes
  1544 ;; Hardware stack levels used:    1
  1545 ;; Hardware stack levels required when called:    5
  1546 ;; This function calls:
  1547 ;;		Nothing
  1548 ;; This function is called by:
  1549 ;;		_rand
  1550 ;; This function uses a non-reentrant model
  1551 ;;
  1552                           
  1553                           
  1554                           ;psect for function ___lmul
  1555  050A                     ___lmul:
  1556  050A                     l1432:	
  1557                           ;incstack = 0
  1558                           ; Regs used in ___lmul: [wreg+status,2+status,0]
  1559                           
  1560  050A  3000               	movlw	0
  1561  050B  1283               	bcf	3,5	;RP0=0, select bank0
  1562  050C  1303               	bcf	3,6	;RP1=0, select bank0
  1563  050D  00B8               	movwf	___lmul@product+3
  1564  050E  3000               	movlw	0
  1565  050F  00B7               	movwf	___lmul@product+2
  1566  0510  3000               	movlw	0
  1567  0511  00B6               	movwf	___lmul@product+1
  1568  0512  3000               	movlw	0
  1569  0513  00B5               	movwf	___lmul@product
  1570  0514                     l1434:
  1571  0514  1C2C               	btfss	___lmul@multiplier,0
  1572  0515  2D17               	goto	u691
  1573  0516  2D18               	goto	u690
  1574  0517                     u691:
  1575  0517  2D2F               	goto	l1438
  1576  0518                     u690:
  1577  0518                     l1436:
  1578  0518  0830               	movf	___lmul@multiplicand,w
  1579  0519  07B5               	addwf	___lmul@product,f
  1580  051A  0831               	movf	___lmul@multiplicand+1,w
  1581  051B  1103               	clrz
  1582  051C  1803               	skipnc
  1583  051D  3E01               	addlw	1
  1584  051E  1903               	skipnz
  1585  051F  2D21               	goto	u701
  1586  0520  07B6               	addwf	___lmul@product+1,f
  1587  0521                     u701:
  1588  0521  0832               	movf	___lmul@multiplicand+2,w
  1589  0522  1103               	clrz
  1590  0523  1803               	skipnc
  1591  0524  3E01               	addlw	1
  1592  0525  1903               	skipnz
  1593  0526  2D28               	goto	u702
  1594  0527  07B7               	addwf	___lmul@product+2,f
  1595  0528                     u702:
  1596  0528  0833               	movf	___lmul@multiplicand+3,w
  1597  0529  1103               	clrz
  1598  052A  1803               	skipnc
  1599  052B  3E01               	addlw	1
  1600  052C  1903               	skipnz
  1601  052D  2D2F               	goto	u703
  1602  052E  07B8               	addwf	___lmul@product+3,f
  1603  052F                     u703:
  1604  052F                     l1438:
  1605  052F  3001               	movlw	1
  1606  0530  00B4               	movwf	??___lmul
  1607  0531                     u715:
  1608  0531  1003               	clrc
  1609  0532  0DB0               	rlf	___lmul@multiplicand,f
  1610  0533  0DB1               	rlf	___lmul@multiplicand+1,f
  1611  0534  0DB2               	rlf	___lmul@multiplicand+2,f
  1612  0535  0DB3               	rlf	___lmul@multiplicand+3,f
  1613  0536  0BB4               	decfsz	??___lmul,f
  1614  0537  2D31               	goto	u715
  1615  0538                     l1440:
  1616  0538  3001               	movlw	1
  1617  0539                     u725:
  1618  0539  1003               	clrc
  1619  053A  0CAF               	rrf	___lmul@multiplier+3,f
  1620  053B  0CAE               	rrf	___lmul@multiplier+2,f
  1621  053C  0CAD               	rrf	___lmul@multiplier+1,f
  1622  053D  0CAC               	rrf	___lmul@multiplier,f
  1623  053E  3EFF               	addlw	-1
  1624  053F  1D03               	skipz
  1625  0540  2D39               	goto	u725
  1626  0541  082F               	movf	___lmul@multiplier+3,w
  1627  0542  042E               	iorwf	___lmul@multiplier+2,w
  1628  0543  042D               	iorwf	___lmul@multiplier+1,w
  1629  0544  042C               	iorwf	___lmul@multiplier,w
  1630  0545  1D03               	skipz
  1631  0546  2D48               	goto	u731
  1632  0547  2D49               	goto	u730
  1633  0548                     u731:
  1634  0548  2D14               	goto	l1434
  1635  0549                     u730:
  1636  0549                     l1442:
  1637  0549  0838               	movf	___lmul@product+3,w
  1638  054A  00AF               	movwf	?___lmul+3
  1639  054B  0837               	movf	___lmul@product+2,w
  1640  054C  00AE               	movwf	?___lmul+2
  1641  054D  0836               	movf	___lmul@product+1,w
  1642  054E  00AD               	movwf	?___lmul+1
  1643  054F  0835               	movf	___lmul@product,w
  1644  0550  00AC               	movwf	?___lmul
  1645  0551                     l326:
  1646  0551  0008               	return
  1647  0552                     __end_of___lmul:
  1648                           
  1649                           	psect	text5
  1650  045C                     __ptext5:	
  1651 ;; *************** function _filas *****************
  1652 ;; Defined at:
  1653 ;;		line 418 in file "main.c"
  1654 ;; Parameters:    Size  Location     Type
  1655 ;;  fila            1    wreg     unsigned char 
  1656 ;;  value           1   12[BANK0 ] unsigned char 
  1657 ;; Auto vars:     Size  Location     Type
  1658 ;;  fila            1   15[BANK0 ] unsigned char 
  1659 ;; Return value:  Size  Location     Type
  1660 ;;                  1    wreg      void 
  1661 ;; Registers used:
  1662 ;;		wreg, fsr0l, fsr0h, status,2, status,0
  1663 ;; Tracked objects:
  1664 ;;		On entry : 0/0
  1665 ;;		On exit  : 0/0
  1666 ;;		Unchanged: 0/0
  1667 ;; Data sizes:     COMMON   BANK0   BANK1   BANK3   BANK2
  1668 ;;      Params:         0       1       0       0       0
  1669 ;;      Locals:         0       1       0       0       0
  1670 ;;      Temps:          0       2       0       0       0
  1671 ;;      Totals:         0       4       0       0       0
  1672 ;;Total ram usage:        4 bytes
  1673 ;; Hardware stack levels used:    1
  1674 ;; Hardware stack levels required when called:    5
  1675 ;; This function calls:
  1676 ;;		Nothing
  1677 ;; This function is called by:
  1678 ;;		_setup
  1679 ;; This function uses a non-reentrant model
  1680 ;;
  1681                           
  1682                           
  1683                           ;psect for function _filas
  1684  045C                     _filas:
  1685                           
  1686                           ;incstack = 0
  1687                           ; Regs used in _filas: [wreg-fsr0h+status,2+status,0]
  1688                           ;filas@fila stored from wreg
  1689  045C  1283               	bcf	3,5	;RP0=0, select bank0
  1690  045D  1303               	bcf	3,6	;RP1=0, select bank0
  1691  045E  00AF               	movwf	filas@fila
  1692  045F                     l1462:
  1693                           
  1694                           ;main.c: 419:     switch (fila){
  1695  045F  2C90               	goto	l1482
  1696  0460                     l1464:
  1697                           
  1698                           ;main.c: 421:             PORTDbits.RD5 = value;
  1699  0460  0C2C               	rrf	filas@value,w
  1700  0461  1C03               	skipc
  1701  0462  1288               	bcf	8,5	;volatile
  1702  0463  1803               	skipnc
  1703  0464  1688               	bsf	8,5	;volatile
  1704                           
  1705                           ;main.c: 422:             break;
  1706  0465  2CB2               	goto	l205
  1707  0466                     l1466:
  1708                           
  1709                           ;main.c: 424:             PORTCbits.RC4 = value;
  1710  0466  0C2C               	rrf	filas@value,w
  1711  0467  1C03               	skipc
  1712  0468  1207               	bcf	7,4	;volatile
  1713  0469  1803               	skipnc
  1714  046A  1607               	bsf	7,4	;volatile
  1715                           
  1716                           ;main.c: 425:             break;
  1717  046B  2CB2               	goto	l205
  1718  046C                     l1468:
  1719                           
  1720                           ;main.c: 427:             PORTAbits.RA7 = value;
  1721  046C  0C2C               	rrf	filas@value,w
  1722  046D  1C03               	skipc
  1723  046E  1385               	bcf	5,7	;volatile
  1724  046F  1803               	skipnc
  1725  0470  1785               	bsf	5,7	;volatile
  1726                           
  1727                           ;main.c: 428:             break;
  1728  0471  2CB2               	goto	l205
  1729  0472                     l1470:
  1730                           
  1731                           ;main.c: 430:             PORTCbits.RC6 = value;
  1732  0472  0C2C               	rrf	filas@value,w
  1733  0473  1C03               	skipc
  1734  0474  1307               	bcf	7,6	;volatile
  1735  0475  1803               	skipnc
  1736  0476  1707               	bsf	7,6	;volatile
  1737                           
  1738                           ;main.c: 431:             break;
  1739  0477  2CB2               	goto	l205
  1740  0478                     l1472:
  1741                           
  1742                           ;main.c: 433:             PORTDbits.RD1 = value;
  1743  0478  0C2C               	rrf	filas@value,w
  1744  0479  1C03               	skipc
  1745  047A  1088               	bcf	8,1	;volatile
  1746  047B  1803               	skipnc
  1747  047C  1488               	bsf	8,1	;volatile
  1748                           
  1749                           ;main.c: 434:             break;
  1750  047D  2CB2               	goto	l205
  1751  047E                     l1474:
  1752                           
  1753                           ;main.c: 436:             PORTAbits.RA6 = value;
  1754  047E  0C2C               	rrf	filas@value,w
  1755  047F  1C03               	skipc
  1756  0480  1305               	bcf	5,6	;volatile
  1757  0481  1803               	skipnc
  1758  0482  1705               	bsf	5,6	;volatile
  1759                           
  1760                           ;main.c: 437:             break;
  1761  0483  2CB2               	goto	l205
  1762  0484                     l1476:
  1763                           
  1764                           ;main.c: 439:             PORTDbits.RD0 = value;
  1765  0484  0C2C               	rrf	filas@value,w
  1766  0485  1C03               	skipc
  1767  0486  1008               	bcf	8,0	;volatile
  1768  0487  1803               	skipnc
  1769  0488  1408               	bsf	8,0	;volatile
  1770                           
  1771                           ;main.c: 440:             break;
  1772  0489  2CB2               	goto	l205
  1773  048A                     l1478:
  1774                           
  1775                           ;main.c: 442:             PORTCbits.RC1 = value;
  1776  048A  0C2C               	rrf	filas@value,w
  1777  048B  1C03               	skipc
  1778  048C  1087               	bcf	7,1	;volatile
  1779  048D  1803               	skipnc
  1780  048E  1487               	bsf	7,1	;volatile
  1781                           
  1782                           ;main.c: 443:             break;
  1783  048F  2CB2               	goto	l205
  1784  0490                     l1482:
  1785  0490  082F               	movf	filas@fila,w
  1786  0491  00AD               	movwf	??_filas
  1787  0492  01AE               	clrf	??_filas+1
  1788                           
  1789                           ; Switch on 2 bytes has been partitioned into a top level switch of size 1, and 1 sub-sw
      +                          itches
  1790                           ; Switch size 1, requested type "simple"
  1791                           ; Number of cases is 1, Range of values is 0 to 0
  1792                           ; switch strategies available:
  1793                           ; Name         Instructions Cycles
  1794                           ; simple_byte            4     3 (average)
  1795                           ; direct_byte           11     8 (fixed)
  1796                           ; jumptable            260     6 (fixed)
  1797                           ;	Chosen strategy is simple_byte
  1798  0493  082E               	movf	??_filas+1,w
  1799  0494  3A00               	xorlw	0	; case 0
  1800  0495  1903               	skipnz
  1801  0496  2C98               	goto	l2202
  1802  0497  2CB2               	goto	l205
  1803  0498                     l2202:
  1804                           
  1805                           ; Switch size 1, requested type "simple"
  1806                           ; Number of cases is 8, Range of values is 1 to 8
  1807                           ; switch strategies available:
  1808                           ; Name         Instructions Cycles
  1809                           ; simple_byte           25    13 (average)
  1810                           ; direct_byte           35    11 (fixed)
  1811                           ; jumptable            263     9 (fixed)
  1812                           ;	Chosen strategy is simple_byte
  1813  0498  082D               	movf	??_filas,w
  1814  0499  3A01               	xorlw	1	; case 1
  1815  049A  1903               	skipnz
  1816  049B  2C60               	goto	l1464
  1817  049C  3A03               	xorlw	3	; case 2
  1818  049D  1903               	skipnz
  1819  049E  2C66               	goto	l1466
  1820  049F  3A01               	xorlw	1	; case 3
  1821  04A0  1903               	skipnz
  1822  04A1  2C6C               	goto	l1468
  1823  04A2  3A07               	xorlw	7	; case 4
  1824  04A3  1903               	skipnz
  1825  04A4  2C72               	goto	l1470
  1826  04A5  3A01               	xorlw	1	; case 5
  1827  04A6  1903               	skipnz
  1828  04A7  2C78               	goto	l1472
  1829  04A8  3A03               	xorlw	3	; case 6
  1830  04A9  1903               	skipnz
  1831  04AA  2C7E               	goto	l1474
  1832  04AB  3A01               	xorlw	1	; case 7
  1833  04AC  1903               	skipnz
  1834  04AD  2C84               	goto	l1476
  1835  04AE  3A0F               	xorlw	15	; case 8
  1836  04AF  1903               	skipnz
  1837  04B0  2C8A               	goto	l1478
  1838  04B1  2CB2               	goto	l205
  1839  04B2                     l205:
  1840  04B2  0008               	return
  1841  04B3                     __end_of_filas:
  1842                           
  1843                           	psect	text6
  1844  04B3                     __ptext6:	
  1845 ;; *************** function _columnas *****************
  1846 ;; Defined at:
  1847 ;;		line 449 in file "main.c"
  1848 ;; Parameters:    Size  Location     Type
  1849 ;;  columna         1    wreg     unsigned char 
  1850 ;;  value           1   12[BANK0 ] unsigned char 
  1851 ;; Auto vars:     Size  Location     Type
  1852 ;;  columna         1   15[BANK0 ] unsigned char 
  1853 ;; Return value:  Size  Location     Type
  1854 ;;                  1    wreg      void 
  1855 ;; Registers used:
  1856 ;;		wreg, fsr0l, fsr0h, status,2, status,0
  1857 ;; Tracked objects:
  1858 ;;		On entry : 0/0
  1859 ;;		On exit  : 0/0
  1860 ;;		Unchanged: 0/0
  1861 ;; Data sizes:     COMMON   BANK0   BANK1   BANK3   BANK2
  1862 ;;      Params:         0       1       0       0       0
  1863 ;;      Locals:         0       1       0       0       0
  1864 ;;      Temps:          0       2       0       0       0
  1865 ;;      Totals:         0       4       0       0       0
  1866 ;;Total ram usage:        4 bytes
  1867 ;; Hardware stack levels used:    1
  1868 ;; Hardware stack levels required when called:    5
  1869 ;; This function calls:
  1870 ;;		Nothing
  1871 ;; This function is called by:
  1872 ;;		_setup
  1873 ;; This function uses a non-reentrant model
  1874 ;;
  1875                           
  1876                           
  1877                           ;psect for function _columnas
  1878  04B3                     _columnas:
  1879                           
  1880                           ;incstack = 0
  1881                           ; Regs used in _columnas: [wreg-fsr0h+status,2+status,0]
  1882                           ;columnas@columna stored from wreg
  1883  04B3  1283               	bcf	3,5	;RP0=0, select bank0
  1884  04B4  1303               	bcf	3,6	;RP1=0, select bank0
  1885  04B5  00AF               	movwf	columnas@columna
  1886  04B6                     l1490:
  1887                           
  1888                           ;main.c: 450:     switch (columna){
  1889  04B6  2CE7               	goto	l1510
  1890  04B7                     l1492:
  1891                           
  1892                           ;main.c: 452:             PORTCbits.RC5 = value;
  1893  04B7  0C2C               	rrf	columnas@value,w
  1894  04B8  1C03               	skipc
  1895  04B9  1287               	bcf	7,5	;volatile
  1896  04BA  1803               	skipnc
  1897  04BB  1687               	bsf	7,5	;volatile
  1898                           
  1899                           ;main.c: 453:             break;
  1900  04BC  2D09               	goto	l219
  1901  04BD                     l1494:
  1902                           
  1903                           ;main.c: 455:             PORTCbits.RC3 = value;
  1904  04BD  0C2C               	rrf	columnas@value,w
  1905  04BE  1C03               	skipc
  1906  04BF  1187               	bcf	7,3	;volatile
  1907  04C0  1803               	skipnc
  1908  04C1  1587               	bsf	7,3	;volatile
  1909                           
  1910                           ;main.c: 456:             break;
  1911  04C2  2D09               	goto	l219
  1912  04C3                     l1496:
  1913                           
  1914                           ;main.c: 458:             PORTCbits.RC2 = value;
  1915  04C3  0C2C               	rrf	columnas@value,w
  1916  04C4  1C03               	skipc
  1917  04C5  1107               	bcf	7,2	;volatile
  1918  04C6  1803               	skipnc
  1919  04C7  1507               	bsf	7,2	;volatile
  1920                           
  1921                           ;main.c: 459:             break;
  1922  04C8  2D09               	goto	l219
  1923  04C9                     l1498:
  1924                           
  1925                           ;main.c: 461:             PORTDbits.RD4 = value;
  1926  04C9  0C2C               	rrf	columnas@value,w
  1927  04CA  1C03               	skipc
  1928  04CB  1208               	bcf	8,4	;volatile
  1929  04CC  1803               	skipnc
  1930  04CD  1608               	bsf	8,4	;volatile
  1931                           
  1932                           ;main.c: 462:             break;
  1933  04CE  2D09               	goto	l219
  1934  04CF                     l1500:
  1935                           
  1936                           ;main.c: 464:             PORTCbits.RC0 = value;
  1937  04CF  0C2C               	rrf	columnas@value,w
  1938  04D0  1C03               	skipc
  1939  04D1  1007               	bcf	7,0	;volatile
  1940  04D2  1803               	skipnc
  1941  04D3  1407               	bsf	7,0	;volatile
  1942                           
  1943                           ;main.c: 465:             break;
  1944  04D4  2D09               	goto	l219
  1945  04D5                     l1502:
  1946                           
  1947                           ;main.c: 467:             PORTCbits.RC7 = value;
  1948  04D5  0C2C               	rrf	columnas@value,w
  1949  04D6  1C03               	skipc
  1950  04D7  1387               	bcf	7,7	;volatile
  1951  04D8  1803               	skipnc
  1952  04D9  1787               	bsf	7,7	;volatile
  1953                           
  1954                           ;main.c: 468:             break;
  1955  04DA  2D09               	goto	l219
  1956  04DB                     l1504:
  1957                           
  1958                           ;main.c: 470:             PORTDbits.RD3 = value;
  1959  04DB  0C2C               	rrf	columnas@value,w
  1960  04DC  1C03               	skipc
  1961  04DD  1188               	bcf	8,3	;volatile
  1962  04DE  1803               	skipnc
  1963  04DF  1588               	bsf	8,3	;volatile
  1964                           
  1965                           ;main.c: 471:             break;
  1966  04E0  2D09               	goto	l219
  1967  04E1                     l1506:
  1968                           
  1969                           ;main.c: 473:             PORTDbits.RD2 = value;
  1970  04E1  0C2C               	rrf	columnas@value,w
  1971  04E2  1C03               	skipc
  1972  04E3  1108               	bcf	8,2	;volatile
  1973  04E4  1803               	skipnc
  1974  04E5  1508               	bsf	8,2	;volatile
  1975                           
  1976                           ;main.c: 474:             break;
  1977  04E6  2D09               	goto	l219
  1978  04E7                     l1510:
  1979  04E7  082F               	movf	columnas@columna,w
  1980  04E8  00AD               	movwf	??_columnas
  1981  04E9  01AE               	clrf	??_columnas+1
  1982                           
  1983                           ; Switch on 2 bytes has been partitioned into a top level switch of size 1, and 1 sub-sw
      +                          itches
  1984                           ; Switch size 1, requested type "simple"
  1985                           ; Number of cases is 1, Range of values is 0 to 0
  1986                           ; switch strategies available:
  1987                           ; Name         Instructions Cycles
  1988                           ; simple_byte            4     3 (average)
  1989                           ; direct_byte           11     8 (fixed)
  1990                           ; jumptable            260     6 (fixed)
  1991                           ;	Chosen strategy is simple_byte
  1992  04EA  082E               	movf	??_columnas+1,w
  1993  04EB  3A00               	xorlw	0	; case 0
  1994  04EC  1903               	skipnz
  1995  04ED  2CEF               	goto	l2204
  1996  04EE  2D09               	goto	l219
  1997  04EF                     l2204:
  1998                           
  1999                           ; Switch size 1, requested type "simple"
  2000                           ; Number of cases is 8, Range of values is 1 to 8
  2001                           ; switch strategies available:
  2002                           ; Name         Instructions Cycles
  2003                           ; simple_byte           25    13 (average)
  2004                           ; direct_byte           35    11 (fixed)
  2005                           ; jumptable            263     9 (fixed)
  2006                           ;	Chosen strategy is simple_byte
  2007  04EF  082D               	movf	??_columnas,w
  2008  04F0  3A01               	xorlw	1	; case 1
  2009  04F1  1903               	skipnz
  2010  04F2  2CB7               	goto	l1492
  2011  04F3  3A03               	xorlw	3	; case 2
  2012  04F4  1903               	skipnz
  2013  04F5  2CBD               	goto	l1494
  2014  04F6  3A01               	xorlw	1	; case 3
  2015  04F7  1903               	skipnz
  2016  04F8  2CC3               	goto	l1496
  2017  04F9  3A07               	xorlw	7	; case 4
  2018  04FA  1903               	skipnz
  2019  04FB  2CC9               	goto	l1498
  2020  04FC  3A01               	xorlw	1	; case 5
  2021  04FD  1903               	skipnz
  2022  04FE  2CCF               	goto	l1500
  2023  04FF  3A03               	xorlw	3	; case 6
  2024  0500  1903               	skipnz
  2025  0501  2CD5               	goto	l1502
  2026  0502  3A01               	xorlw	1	; case 7
  2027  0503  1903               	skipnz
  2028  0504  2CDB               	goto	l1504
  2029  0505  3A0F               	xorlw	15	; case 8
  2030  0506  1903               	skipnz
  2031  0507  2CE1               	goto	l1506
  2032  0508  2D09               	goto	l219
  2033  0509                     l219:
  2034  0509  0008               	return
  2035  050A                     __end_of_columnas:
  2036                           
  2037                           	psect	text7
  2038  065A                     __ptext7:	
  2039 ;; *************** function _isr *****************
  2040 ;; Defined at:
  2041 ;;		line 314 in file "main.c"
  2042 ;; Parameters:    Size  Location     Type
  2043 ;;		None
  2044 ;; Auto vars:     Size  Location     Type
  2045 ;;		None
  2046 ;; Return value:  Size  Location     Type
  2047 ;;                  1    wreg      void 
  2048 ;; Registers used:
  2049 ;;		wreg, fsr0l, fsr0h, status,2, status,0, btemp+1, pclath, cstack
  2050 ;; Tracked objects:
  2051 ;;		On entry : 0/0
  2052 ;;		On exit  : 0/0
  2053 ;;		Unchanged: 0/0
  2054 ;; Data sizes:     COMMON   BANK0   BANK1   BANK3   BANK2
  2055 ;;      Params:         0       0       0       0       0
  2056 ;;      Locals:         0       0       0       0       0
  2057 ;;      Temps:          0       4       0       0       0
  2058 ;;      Totals:         0       4       0       0       0
  2059 ;;Total ram usage:        4 bytes
  2060 ;; Hardware stack levels used:    1
  2061 ;; Hardware stack levels required when called:    4
  2062 ;; This function calls:
  2063 ;;		_IOCB_interrupt
  2064 ;;		_TMR0_interrupt
  2065 ;; This function is called by:
  2066 ;;		Interrupt level 1
  2067 ;; This function uses a non-reentrant model
  2068 ;;
  2069                           
  2070                           
  2071                           ;psect for function _isr
  2072  065A                     _isr:
  2073  065A                     i1l1902:
  2074                           
  2075                           ;main.c: 316:     if (INTCONbits.T0IF){
  2076  065A  1D0B               	btfss	11,2	;volatile
  2077  065B  2E5D               	goto	u125_21
  2078  065C  2E5E               	goto	u125_20
  2079  065D                     u125_21:
  2080  065D  2E63               	goto	i1l1906
  2081  065E                     u125_20:
  2082  065E                     i1l1904:
  2083                           
  2084                           ;main.c: 317:         TMR0_interrupt();
  2085  065E  120A  118A  202F  120A  118A  	fcall	_TMR0_interrupt
  2086  0663                     i1l1906:
  2087                           
  2088                           ;main.c: 320:     if(INTCONbits.RBIF){
  2089  0663  1C0B               	btfss	11,0	;volatile
  2090  0664  2E66               	goto	u126_21
  2091  0665  2E67               	goto	u126_20
  2092  0666                     u126_21:
  2093  0666  2E6C               	goto	i1l170
  2094  0667                     u126_20:
  2095  0667                     i1l1908:
  2096                           
  2097                           ;main.c: 321:         IOCB_interrupt();
  2098  0667  120A  118A  23FC  120A  118A  	fcall	_IOCB_interrupt
  2099  066C                     i1l170:
  2100  066C  1283               	bcf	3,5	;RP0=0, select bank0
  2101  066D  1303               	bcf	3,6	;RP1=0, select bank0
  2102  066E  082B               	movf	??_isr+3,w
  2103  066F  00FF               	movwf	btemp+1
  2104  0670  082A               	movf	??_isr+2,w
  2105  0671  008A               	movwf	10
  2106  0672  0829               	movf	??_isr+1,w
  2107  0673  0084               	movwf	4
  2108  0674  0E28               	swapf	??_isr,w
  2109  0675  0083               	movwf	3
  2110  0676  0EFE               	swapf	btemp,f
  2111  0677  0E7E               	swapf	btemp,w
  2112  0678  0009               	retfie
  2113  0679                     __end_of_isr:
  2114                           
  2115                           	psect	intentry
  2116  0004                     __pintentry:	
  2117                           ;incstack = 0
  2118                           ; Regs used in _isr: [wreg-fsr0h+status,2+status,0+btemp+1+pclath+cstack]
  2119                           
  2120  0004                     interrupt_function:
  2121  007E                     saved_w	set	btemp
  2122  0004  00FE               	movwf	btemp
  2123  0005  0E03               	swapf	3,w
  2124  0006  1283               	bcf	3,5	;RP0=0, select bank0
  2125  0007  1303               	bcf	3,6	;RP1=0, select bank0
  2126  0008  00A8               	movwf	??_isr
  2127  0009  0804               	movf	4,w
  2128  000A  00A9               	movwf	??_isr+1
  2129  000B  080A               	movf	10,w
  2130  000C  00AA               	movwf	??_isr+2
  2131  000D  087F               	movf	btemp+1,w
  2132  000E  00AB               	movwf	??_isr+3
  2133  000F  120A  118A  2E5A   	ljmp	_isr
  2134                           
  2135                           	psect	text8
  2136  002F                     __ptext8:	
  2137 ;; *************** function _TMR0_interrupt *****************
  2138 ;; Defined at:
  2139 ;;		line 242 in file "main.c"
  2140 ;; Parameters:    Size  Location     Type
  2141 ;;		None
  2142 ;; Auto vars:     Size  Location     Type
  2143 ;;		None
  2144 ;; Return value:  Size  Location     Type
  2145 ;;                  1    wreg      void 
  2146 ;; Registers used:
  2147 ;;		wreg, fsr0l, fsr0h, status,2, status,0, btemp+1, pclath, cstack
  2148 ;; Tracked objects:
  2149 ;;		On entry : 0/0
  2150 ;;		On exit  : 0/0
  2151 ;;		Unchanged: 0/0
  2152 ;; Data sizes:     COMMON   BANK0   BANK1   BANK3   BANK2
  2153 ;;      Params:         0       0       0       0       0
  2154 ;;      Locals:         0       0       0       0       0
  2155 ;;      Temps:          2       0       0       0       0
  2156 ;;      Totals:         2       0       0       0       0
  2157 ;;Total ram usage:        2 bytes
  2158 ;; Hardware stack levels used:    1
  2159 ;; Hardware stack levels required when called:    1
  2160 ;; This function calls:
  2161 ;;		i1_columnas
  2162 ;;		i1_filas
  2163 ;; This function is called by:
  2164 ;;		_isr
  2165 ;; This function uses a non-reentrant model
  2166 ;;
  2167                           
  2168                           
  2169                           ;psect for function _TMR0_interrupt
  2170  002F                     _TMR0_interrupt:
  2171  002F                     i1l1672:	
  2172                           ;incstack = 0
  2173                           ; Regs used in _TMR0_interrupt: [wreg-fsr0h+status,2+status,0+btemp+1+pclath+cstack]
  2174                           
  2175                           
  2176                           ;main.c: 244:     if (!end){
  2177  002F  1283               	bcf	3,5	;RP0=0, select bank0
  2178  0030  1303               	bcf	3,6	;RP1=0, select bank0
  2179  0031  0858               	movf	_end,w
  2180  0032  1D03               	btfss	3,2
  2181  0033  2835               	goto	u78_21
  2182  0034  2836               	goto	u78_20
  2183  0035                     u78_21:
  2184  0035  2975               	goto	i1l1758
  2185  0036                     u78_20:
  2186  0036                     i1l1674:
  2187                           
  2188                           ;main.c: 246:         if(banderaMulti){
  2189  0036  084F               	movf	_banderaMulti,w
  2190  0037  1903               	btfsc	3,2
  2191  0038  283A               	goto	u79_21
  2192  0039  283B               	goto	u79_20
  2193  003A                     u79_21:
  2194  003A  28B7               	goto	i1l1708
  2195  003B                     u79_20:
  2196  003B                     i1l1676:
  2197                           
  2198                           ;main.c: 248:             for (i = 1; i < 9; i++) {
  2199  003B  3001               	movlw	1
  2200  003C  00C5               	movwf	_i
  2201  003D  3000               	movlw	0
  2202  003E  00C6               	movwf	_i+1
  2203  003F                     i1l1678:
  2204  003F  0846               	movf	_i+1,w
  2205  0040  3A80               	xorlw	128
  2206  0041  00FF               	movwf	btemp+1
  2207  0042  3080               	movlw	128
  2208  0043  027F               	subwf	btemp+1,w
  2209  0044  1D03               	skipz
  2210  0045  2848               	goto	u80_25
  2211  0046  3009               	movlw	9
  2212  0047  0245               	subwf	_i,w
  2213  0048                     u80_25:
  2214  0048  1C03               	skipc
  2215  0049  284B               	goto	u80_21
  2216  004A  284C               	goto	u80_20
  2217  004B                     u80_21:
  2218  004B  284D               	goto	i1l1682
  2219  004C                     u80_20:
  2220  004C  286C               	goto	i1l1690
  2221  004D                     i1l1682:
  2222                           
  2223                           ;main.c: 249:                 if(i != semillaF){
  2224  004D  1283               	bcf	3,5	;RP0=0, select bank0
  2225  004E  1303               	bcf	3,6	;RP1=0, select bank0
  2226  004F  0857               	movf	_semillaF,w
  2227  0050  00F4               	movwf	??_TMR0_interrupt
  2228  0051  01F5               	clrf	??_TMR0_interrupt+1
  2229  0052  0846               	movf	_i+1,w
  2230  0053  0675               	xorwf	??_TMR0_interrupt+1,w
  2231  0054  1D03               	skipz
  2232  0055  2858               	goto	u81_25
  2233  0056  0845               	movf	_i,w
  2234  0057  0674               	xorwf	??_TMR0_interrupt,w
  2235  0058                     u81_25:
  2236  0058  1903               	skipnz
  2237  0059  285B               	goto	u81_21
  2238  005A  285C               	goto	u81_20
  2239  005B                     u81_21:
  2240  005B  2863               	goto	i1l1686
  2241  005C                     u81_20:
  2242  005C                     i1l1684:
  2243                           
  2244                           ;main.c: 250:                     filas(i,0);
  2245  005C  01F0               	clrf	i1filas@value
  2246  005D  0845               	movf	_i,w
  2247  005E  120A  118A  2332  120A  118A  	fcall	i1_filas
  2248  0063                     i1l1686:
  2249                           
  2250                           ;main.c: 252:             }
  2251  0063  3001               	movlw	1
  2252  0064  1283               	bcf	3,5	;RP0=0, select bank0
  2253  0065  1303               	bcf	3,6	;RP1=0, select bank0
  2254  0066  07C5               	addwf	_i,f
  2255  0067  1803               	skipnc
  2256  0068  0AC6               	incf	_i+1,f
  2257  0069  3000               	movlw	0
  2258  006A  07C6               	addwf	_i+1,f
  2259  006B  283F               	goto	i1l1678
  2260  006C                     i1l1690:
  2261                           
  2262                           ;main.c: 254:             for (i = 1; i < 9; i++) {
  2263  006C  3001               	movlw	1
  2264  006D  1283               	bcf	3,5	;RP0=0, select bank0
  2265  006E  1303               	bcf	3,6	;RP1=0, select bank0
  2266  006F  00C5               	movwf	_i
  2267  0070  3000               	movlw	0
  2268  0071  00C6               	movwf	_i+1
  2269  0072                     i1l1692:
  2270  0072  0846               	movf	_i+1,w
  2271  0073  3A80               	xorlw	128
  2272  0074  00FF               	movwf	btemp+1
  2273  0075  3080               	movlw	128
  2274  0076  027F               	subwf	btemp+1,w
  2275  0077  1D03               	skipz
  2276  0078  287B               	goto	u82_25
  2277  0079  3009               	movlw	9
  2278  007A  0245               	subwf	_i,w
  2279  007B                     u82_25:
  2280  007B  1C03               	skipc
  2281  007C  287E               	goto	u82_21
  2282  007D  287F               	goto	u82_20
  2283  007E                     u82_21:
  2284  007E  2880               	goto	i1l1696
  2285  007F                     u82_20:
  2286  007F  28A0               	goto	i1l1704
  2287  0080                     i1l1696:
  2288                           
  2289                           ;main.c: 255:                 if(i != semillaC){
  2290  0080  1283               	bcf	3,5	;RP0=0, select bank0
  2291  0081  1303               	bcf	3,6	;RP1=0, select bank0
  2292  0082  0856               	movf	_semillaC,w
  2293  0083  00F4               	movwf	??_TMR0_interrupt
  2294  0084  01F5               	clrf	??_TMR0_interrupt+1
  2295  0085  0846               	movf	_i+1,w
  2296  0086  0675               	xorwf	??_TMR0_interrupt+1,w
  2297  0087  1D03               	skipz
  2298  0088  288B               	goto	u83_25
  2299  0089  0845               	movf	_i,w
  2300  008A  0674               	xorwf	??_TMR0_interrupt,w
  2301  008B                     u83_25:
  2302  008B  1903               	skipnz
  2303  008C  288E               	goto	u83_21
  2304  008D  288F               	goto	u83_20
  2305  008E                     u83_21:
  2306  008E  2897               	goto	i1l1700
  2307  008F                     u83_20:
  2308  008F                     i1l1698:
  2309                           
  2310                           ;main.c: 256:                     columnas(i,1);
  2311  008F  01F0               	clrf	i1columnas@value
  2312  0090  0AF0               	incf	i1columnas@value,f
  2313  0091  0845               	movf	_i,w
  2314  0092  120A  118A  2397  120A  118A  	fcall	i1_columnas
  2315  0097                     i1l1700:
  2316                           
  2317                           ;main.c: 258:             }
  2318  0097  3001               	movlw	1
  2319  0098  1283               	bcf	3,5	;RP0=0, select bank0
  2320  0099  1303               	bcf	3,6	;RP1=0, select bank0
  2321  009A  07C5               	addwf	_i,f
  2322  009B  1803               	skipnc
  2323  009C  0AC6               	incf	_i+1,f
  2324  009D  3000               	movlw	0
  2325  009E  07C6               	addwf	_i+1,f
  2326  009F  2872               	goto	i1l1692
  2327  00A0                     i1l1704:
  2328                           
  2329                           ;main.c: 260:             filas(semillaF,1);
  2330  00A0  01F0               	clrf	i1filas@value
  2331  00A1  0AF0               	incf	i1filas@value,f
  2332  00A2  1283               	bcf	3,5	;RP0=0, select bank0
  2333  00A3  1303               	bcf	3,6	;RP1=0, select bank0
  2334  00A4  0857               	movf	_semillaF,w
  2335  00A5  120A  118A  2332  120A  118A  	fcall	i1_filas
  2336                           
  2337                           ;main.c: 261:             columnas(semillaC,0);
  2338  00AA  01F0               	clrf	i1columnas@value
  2339  00AB  1283               	bcf	3,5	;RP0=0, select bank0
  2340  00AC  1303               	bcf	3,6	;RP1=0, select bank0
  2341  00AD  0856               	movf	_semillaC,w
  2342  00AE  120A  118A  2397  120A  118A  	fcall	i1_columnas
  2343  00B3                     i1l1706:
  2344                           
  2345                           ;main.c: 263:             banderaMulti = 0;
  2346  00B3  1283               	bcf	3,5	;RP0=0, select bank0
  2347  00B4  1303               	bcf	3,6	;RP1=0, select bank0
  2348  00B5  01CF               	clrf	_banderaMulti
  2349                           
  2350                           ;main.c: 264:         }else{
  2351  00B6  2975               	goto	i1l1758
  2352  00B7                     i1l1708:
  2353                           
  2354                           ;main.c: 266:             for (x = 1; x < 9; x++) {
  2355  00B7  3001               	movlw	1
  2356  00B8  00E2               	movwf	_x
  2357  00B9  3000               	movlw	0
  2358  00BA  00E3               	movwf	_x+1
  2359  00BB                     i1l1710:
  2360  00BB  0863               	movf	_x+1,w
  2361  00BC  3A80               	xorlw	128
  2362  00BD  00FF               	movwf	btemp+1
  2363  00BE  3080               	movlw	128
  2364  00BF  027F               	subwf	btemp+1,w
  2365  00C0  1D03               	skipz
  2366  00C1  28C4               	goto	u84_25
  2367  00C2  3009               	movlw	9
  2368  00C3  0262               	subwf	_x,w
  2369  00C4                     u84_25:
  2370  00C4  1C03               	skipc
  2371  00C5  28C7               	goto	u84_21
  2372  00C6  28C8               	goto	u84_20
  2373  00C7                     u84_21:
  2374  00C7  28C9               	goto	i1l1714
  2375  00C8                     u84_20:
  2376  00C8  28E8               	goto	i1l1722
  2377  00C9                     i1l1714:
  2378                           
  2379                           ;main.c: 267:                 if(x != cFila){
  2380  00C9  1283               	bcf	3,5	;RP0=0, select bank0
  2381  00CA  1303               	bcf	3,6	;RP1=0, select bank0
  2382  00CB  0861               	movf	_cFila,w
  2383  00CC  00F4               	movwf	??_TMR0_interrupt
  2384  00CD  01F5               	clrf	??_TMR0_interrupt+1
  2385  00CE  0863               	movf	_x+1,w
  2386  00CF  0675               	xorwf	??_TMR0_interrupt+1,w
  2387  00D0  1D03               	skipz
  2388  00D1  28D4               	goto	u85_25
  2389  00D2  0862               	movf	_x,w
  2390  00D3  0674               	xorwf	??_TMR0_interrupt,w
  2391  00D4                     u85_25:
  2392  00D4  1903               	skipnz
  2393  00D5  28D7               	goto	u85_21
  2394  00D6  28D8               	goto	u85_20
  2395  00D7                     u85_21:
  2396  00D7  28DF               	goto	i1l1718
  2397  00D8                     u85_20:
  2398  00D8                     i1l1716:
  2399                           
  2400                           ;main.c: 268:                     filas(x,0);
  2401  00D8  01F0               	clrf	i1filas@value
  2402  00D9  0862               	movf	_x,w
  2403  00DA  120A  118A  2332  120A  118A  	fcall	i1_filas
  2404  00DF                     i1l1718:
  2405                           
  2406                           ;main.c: 270:             }
  2407  00DF  3001               	movlw	1
  2408  00E0  1283               	bcf	3,5	;RP0=0, select bank0
  2409  00E1  1303               	bcf	3,6	;RP1=0, select bank0
  2410  00E2  07E2               	addwf	_x,f
  2411  00E3  1803               	skipnc
  2412  00E4  0AE3               	incf	_x+1,f
  2413  00E5  3000               	movlw	0
  2414  00E6  07E3               	addwf	_x+1,f
  2415  00E7  28BB               	goto	i1l1710
  2416  00E8                     i1l1722:
  2417                           
  2418                           ;main.c: 272:             for (x = 1; x < 9; x++) {
  2419  00E8  3001               	movlw	1
  2420  00E9  1283               	bcf	3,5	;RP0=0, select bank0
  2421  00EA  1303               	bcf	3,6	;RP1=0, select bank0
  2422  00EB  00E2               	movwf	_x
  2423  00EC  3000               	movlw	0
  2424  00ED  00E3               	movwf	_x+1
  2425  00EE                     i1l1724:
  2426  00EE  0863               	movf	_x+1,w
  2427  00EF  3A80               	xorlw	128
  2428  00F0  00FF               	movwf	btemp+1
  2429  00F1  3080               	movlw	128
  2430  00F2  027F               	subwf	btemp+1,w
  2431  00F3  1D03               	skipz
  2432  00F4  28F7               	goto	u86_25
  2433  00F5  3009               	movlw	9
  2434  00F6  0262               	subwf	_x,w
  2435  00F7                     u86_25:
  2436  00F7  1C03               	skipc
  2437  00F8  28FA               	goto	u86_21
  2438  00F9  28FB               	goto	u86_20
  2439  00FA                     u86_21:
  2440  00FA  28FC               	goto	i1l1728
  2441  00FB                     u86_20:
  2442  00FB  291C               	goto	i1l1736
  2443  00FC                     i1l1728:
  2444                           
  2445                           ;main.c: 273:                 if(x != cColumna){
  2446  00FC  1283               	bcf	3,5	;RP0=0, select bank0
  2447  00FD  1303               	bcf	3,6	;RP1=0, select bank0
  2448  00FE  0860               	movf	_cColumna,w
  2449  00FF  00F4               	movwf	??_TMR0_interrupt
  2450  0100  01F5               	clrf	??_TMR0_interrupt+1
  2451  0101  0863               	movf	_x+1,w
  2452  0102  0675               	xorwf	??_TMR0_interrupt+1,w
  2453  0103  1D03               	skipz
  2454  0104  2907               	goto	u87_25
  2455  0105  0862               	movf	_x,w
  2456  0106  0674               	xorwf	??_TMR0_interrupt,w
  2457  0107                     u87_25:
  2458  0107  1903               	skipnz
  2459  0108  290A               	goto	u87_21
  2460  0109  290B               	goto	u87_20
  2461  010A                     u87_21:
  2462  010A  2913               	goto	i1l1732
  2463  010B                     u87_20:
  2464  010B                     i1l1730:
  2465                           
  2466                           ;main.c: 274:                     columnas(x,1);
  2467  010B  01F0               	clrf	i1columnas@value
  2468  010C  0AF0               	incf	i1columnas@value,f
  2469  010D  0862               	movf	_x,w
  2470  010E  120A  118A  2397  120A  118A  	fcall	i1_columnas
  2471  0113                     i1l1732:
  2472                           
  2473                           ;main.c: 276:             }
  2474  0113  3001               	movlw	1
  2475  0114  1283               	bcf	3,5	;RP0=0, select bank0
  2476  0115  1303               	bcf	3,6	;RP1=0, select bank0
  2477  0116  07E2               	addwf	_x,f
  2478  0117  1803               	skipnc
  2479  0118  0AE3               	incf	_x+1,f
  2480  0119  3000               	movlw	0
  2481  011A  07E3               	addwf	_x+1,f
  2482  011B  28EE               	goto	i1l1724
  2483  011C                     i1l1736:
  2484                           
  2485                           ;main.c: 278:             filas(cFila,1);
  2486  011C  01F0               	clrf	i1filas@value
  2487  011D  0AF0               	incf	i1filas@value,f
  2488  011E  1283               	bcf	3,5	;RP0=0, select bank0
  2489  011F  1303               	bcf	3,6	;RP1=0, select bank0
  2490  0120  0861               	movf	_cFila,w
  2491  0121  120A  118A  2332  120A  118A  	fcall	i1_filas
  2492                           
  2493                           ;main.c: 279:             columnas(cColumna,0);
  2494  0126  01F0               	clrf	i1columnas@value
  2495  0127  1283               	bcf	3,5	;RP0=0, select bank0
  2496  0128  1303               	bcf	3,6	;RP1=0, select bank0
  2497  0129  0860               	movf	_cColumna,w
  2498  012A  120A  118A  2397  120A  118A  	fcall	i1_columnas
  2499  012F                     i1l1738:
  2500                           
  2501                           ;main.c: 282:             if(longitud==2){
  2502  012F  3002               	movlw	2
  2503  0130  1283               	bcf	3,5	;RP0=0, select bank0
  2504  0131  1303               	bcf	3,6	;RP1=0, select bank0
  2505  0132  065F               	xorwf	_longitud,w
  2506  0133  1D03               	btfss	3,2
  2507  0134  2936               	goto	u88_21
  2508  0135  2937               	goto	u88_20
  2509  0136                     u88_21:
  2510  0136  2971               	goto	i1l1756
  2511  0137                     u88_20:
  2512  0137                     i1l1740:
  2513                           
  2514                           ;main.c: 283:                 if(upFlag){
  2515  0137  0853               	movf	_upFlag,w
  2516  0138  1903               	btfsc	3,2
  2517  0139  293B               	goto	u89_21
  2518  013A  293C               	goto	u89_20
  2519  013B                     u89_21:
  2520  013B  2946               	goto	i1l1744
  2521  013C                     u89_20:
  2522  013C                     i1l1742:
  2523                           
  2524                           ;main.c: 284:                     filas(cFila+1,1);
  2525  013C  01F0               	clrf	i1filas@value
  2526  013D  0AF0               	incf	i1filas@value,f
  2527  013E  0861               	movf	_cFila,w
  2528  013F  3E01               	addlw	1
  2529  0140  120A  118A  2332  120A  118A  	fcall	i1_filas
  2530                           
  2531                           ;main.c: 285:                 }else if(downFlag){
  2532  0145  2971               	goto	i1l1756
  2533  0146                     i1l1744:
  2534  0146  0852               	movf	_downFlag,w
  2535  0147  1903               	btfsc	3,2
  2536  0148  294A               	goto	u90_21
  2537  0149  294B               	goto	u90_20
  2538  014A                     u90_21:
  2539  014A  2955               	goto	i1l1748
  2540  014B                     u90_20:
  2541  014B                     i1l1746:
  2542                           
  2543                           ;main.c: 286:                     filas(cFila-1,1);
  2544  014B  01F0               	clrf	i1filas@value
  2545  014C  0AF0               	incf	i1filas@value,f
  2546  014D  0861               	movf	_cFila,w
  2547  014E  3EFF               	addlw	255
  2548  014F  120A  118A  2332  120A  118A  	fcall	i1_filas
  2549                           
  2550                           ;main.c: 287:                 }else if(leftFlag){
  2551  0154  2971               	goto	i1l1756
  2552  0155                     i1l1748:
  2553  0155  0851               	movf	_leftFlag,w
  2554  0156  1903               	btfsc	3,2
  2555  0157  2959               	goto	u91_21
  2556  0158  295A               	goto	u91_20
  2557  0159                     u91_21:
  2558  0159  2963               	goto	i1l1752
  2559  015A                     u91_20:
  2560  015A                     i1l1750:
  2561                           
  2562                           ;main.c: 288:                     columnas(cColumna+1,0);
  2563  015A  01F0               	clrf	i1columnas@value
  2564  015B  0860               	movf	_cColumna,w
  2565  015C  3E01               	addlw	1
  2566  015D  120A  118A  2397  120A  118A  	fcall	i1_columnas
  2567                           
  2568                           ;main.c: 289:                 }else if(rigthFlag){
  2569  0162  2971               	goto	i1l1756
  2570  0163                     i1l1752:
  2571  0163  0850               	movf	_rigthFlag,w
  2572  0164  1903               	btfsc	3,2
  2573  0165  2967               	goto	u92_21
  2574  0166  2968               	goto	u92_20
  2575  0167                     u92_21:
  2576  0167  2971               	goto	i1l157
  2577  0168                     u92_20:
  2578  0168                     i1l1754:
  2579                           
  2580                           ;main.c: 290:                     columnas(cColumna-1,0);
  2581  0168  01F0               	clrf	i1columnas@value
  2582  0169  0860               	movf	_cColumna,w
  2583  016A  3EFF               	addlw	255
  2584  016B  120A  118A  2397  120A  118A  	fcall	i1_columnas
  2585  0170  2971               	goto	i1l1756
  2586  0171                     i1l157:
  2587  0171                     i1l1756:
  2588                           
  2589                           ;main.c: 297:             banderaMulti = 1;
  2590  0171  1283               	bcf	3,5	;RP0=0, select bank0
  2591  0172  1303               	bcf	3,6	;RP1=0, select bank0
  2592  0173  01CF               	clrf	_banderaMulti
  2593  0174  0ACF               	incf	_banderaMulti,f
  2594  0175                     i1l1758:
  2595                           
  2596                           ;main.c: 305:     TMR0 = 247;
  2597  0175  30F7               	movlw	247
  2598  0176  0081               	movwf	1	;volatile
  2599  0177                     i1l1760:
  2600                           
  2601                           ;main.c: 306:     INTCONbits.T0IF = 0;
  2602  0177  110B               	bcf	11,2	;volatile
  2603  0178                     i1l163:
  2604  0178  0008               	return
  2605  0179                     __end_of_TMR0_interrupt:
  2606                           
  2607                           	psect	text9
  2608  0332                     __ptext9:	
  2609 ;; *************** function i1_filas *****************
  2610 ;; Defined at:
  2611 ;;		line 418 in file "main.c"
  2612 ;; Parameters:    Size  Location     Type
  2613 ;;  fila            1    wreg     unsigned char 
  2614 ;;  value           1    0[COMMON] unsigned char 
  2615 ;; Auto vars:     Size  Location     Type
  2616 ;;  fila            1    3[COMMON] unsigned char 
  2617 ;; Return value:  Size  Location     Type
  2618 ;;                  1    wreg      void 
  2619 ;; Registers used:
  2620 ;;		wreg, fsr0l, fsr0h, status,2, status,0
  2621 ;; Tracked objects:
  2622 ;;		On entry : 0/0
  2623 ;;		On exit  : 0/0
  2624 ;;		Unchanged: 0/0
  2625 ;; Data sizes:     COMMON   BANK0   BANK1   BANK3   BANK2
  2626 ;;      Params:         1       0       0       0       0
  2627 ;;      Locals:         1       0       0       0       0
  2628 ;;      Temps:          2       0       0       0       0
  2629 ;;      Totals:         4       0       0       0       0
  2630 ;;Total ram usage:        4 bytes
  2631 ;; Hardware stack levels used:    1
  2632 ;; This function calls:
  2633 ;;		Nothing
  2634 ;; This function is called by:
  2635 ;;		_TMR0_interrupt
  2636 ;; This function uses a non-reentrant model
  2637 ;;
  2638                           
  2639                           
  2640                           ;psect for function i1_filas
  2641  0332                     i1_filas:
  2642                           
  2643                           ;incstack = 0
  2644                           ; Regs used in i1_filas: [wreg-fsr0h+status,2+status,0]
  2645                           ;i1filas@fila stored from wreg
  2646  0332  00F3               	movwf	i1filas@fila
  2647  0333                     i1l1536:
  2648                           
  2649                           ;main.c: 419:     switch (fila){
  2650  0333  2B74               	goto	i1l1556
  2651  0334                     i1l1538:
  2652                           
  2653                           ;main.c: 421:             PORTDbits.RD5 = value;
  2654  0334  0C70               	rrf	i1filas@value,w
  2655  0335  1283               	bcf	3,5	;RP0=0, select bank0
  2656  0336  1303               	bcf	3,6	;RP1=0, select bank0
  2657  0337  1C03               	skipc
  2658  0338  1288               	bcf	8,5	;volatile
  2659  0339  1803               	skipnc
  2660  033A  1688               	bsf	8,5	;volatile
  2661                           
  2662                           ;main.c: 422:             break;
  2663  033B  2B96               	goto	i1l205
  2664  033C                     i1l1540:
  2665                           
  2666                           ;main.c: 424:             PORTCbits.RC4 = value;
  2667  033C  0C70               	rrf	i1filas@value,w
  2668  033D  1283               	bcf	3,5	;RP0=0, select bank0
  2669  033E  1303               	bcf	3,6	;RP1=0, select bank0
  2670  033F  1C03               	skipc
  2671  0340  1207               	bcf	7,4	;volatile
  2672  0341  1803               	skipnc
  2673  0342  1607               	bsf	7,4	;volatile
  2674                           
  2675                           ;main.c: 425:             break;
  2676  0343  2B96               	goto	i1l205
  2677  0344                     i1l1542:
  2678                           
  2679                           ;main.c: 427:             PORTAbits.RA7 = value;
  2680  0344  0C70               	rrf	i1filas@value,w
  2681  0345  1283               	bcf	3,5	;RP0=0, select bank0
  2682  0346  1303               	bcf	3,6	;RP1=0, select bank0
  2683  0347  1C03               	skipc
  2684  0348  1385               	bcf	5,7	;volatile
  2685  0349  1803               	skipnc
  2686  034A  1785               	bsf	5,7	;volatile
  2687                           
  2688                           ;main.c: 428:             break;
  2689  034B  2B96               	goto	i1l205
  2690  034C                     i1l1544:
  2691                           
  2692                           ;main.c: 430:             PORTCbits.RC6 = value;
  2693  034C  0C70               	rrf	i1filas@value,w
  2694  034D  1283               	bcf	3,5	;RP0=0, select bank0
  2695  034E  1303               	bcf	3,6	;RP1=0, select bank0
  2696  034F  1C03               	skipc
  2697  0350  1307               	bcf	7,6	;volatile
  2698  0351  1803               	skipnc
  2699  0352  1707               	bsf	7,6	;volatile
  2700                           
  2701                           ;main.c: 431:             break;
  2702  0353  2B96               	goto	i1l205
  2703  0354                     i1l1546:
  2704                           
  2705                           ;main.c: 433:             PORTDbits.RD1 = value;
  2706  0354  0C70               	rrf	i1filas@value,w
  2707  0355  1283               	bcf	3,5	;RP0=0, select bank0
  2708  0356  1303               	bcf	3,6	;RP1=0, select bank0
  2709  0357  1C03               	skipc
  2710  0358  1088               	bcf	8,1	;volatile
  2711  0359  1803               	skipnc
  2712  035A  1488               	bsf	8,1	;volatile
  2713                           
  2714                           ;main.c: 434:             break;
  2715  035B  2B96               	goto	i1l205
  2716  035C                     i1l1548:
  2717                           
  2718                           ;main.c: 436:             PORTAbits.RA6 = value;
  2719  035C  0C70               	rrf	i1filas@value,w
  2720  035D  1283               	bcf	3,5	;RP0=0, select bank0
  2721  035E  1303               	bcf	3,6	;RP1=0, select bank0
  2722  035F  1C03               	skipc
  2723  0360  1305               	bcf	5,6	;volatile
  2724  0361  1803               	skipnc
  2725  0362  1705               	bsf	5,6	;volatile
  2726                           
  2727                           ;main.c: 437:             break;
  2728  0363  2B96               	goto	i1l205
  2729  0364                     i1l1550:
  2730                           
  2731                           ;main.c: 439:             PORTDbits.RD0 = value;
  2732  0364  0C70               	rrf	i1filas@value,w
  2733  0365  1283               	bcf	3,5	;RP0=0, select bank0
  2734  0366  1303               	bcf	3,6	;RP1=0, select bank0
  2735  0367  1C03               	skipc
  2736  0368  1008               	bcf	8,0	;volatile
  2737  0369  1803               	skipnc
  2738  036A  1408               	bsf	8,0	;volatile
  2739                           
  2740                           ;main.c: 440:             break;
  2741  036B  2B96               	goto	i1l205
  2742  036C                     i1l1552:
  2743                           
  2744                           ;main.c: 442:             PORTCbits.RC1 = value;
  2745  036C  0C70               	rrf	i1filas@value,w
  2746  036D  1283               	bcf	3,5	;RP0=0, select bank0
  2747  036E  1303               	bcf	3,6	;RP1=0, select bank0
  2748  036F  1C03               	skipc
  2749  0370  1087               	bcf	7,1	;volatile
  2750  0371  1803               	skipnc
  2751  0372  1487               	bsf	7,1	;volatile
  2752                           
  2753                           ;main.c: 443:             break;
  2754  0373  2B96               	goto	i1l205
  2755  0374                     i1l1556:
  2756  0374  0873               	movf	i1filas@fila,w
  2757  0375  00F1               	movwf	??i1_filas
  2758  0376  01F2               	clrf	??i1_filas+1
  2759                           
  2760                           ; Switch on 2 bytes has been partitioned into a top level switch of size 1, and 1 sub-sw
      +                          itches
  2761                           ; Switch size 1, requested type "simple"
  2762                           ; Number of cases is 1, Range of values is 0 to 0
  2763                           ; switch strategies available:
  2764                           ; Name         Instructions Cycles
  2765                           ; simple_byte            4     3 (average)
  2766                           ; direct_byte           11     8 (fixed)
  2767                           ; jumptable            260     6 (fixed)
  2768                           ;	Chosen strategy is simple_byte
  2769  0377  0872               	movf	??i1_filas+1,w
  2770  0378  3A00               	xorlw	0	; case 0
  2771  0379  1903               	skipnz
  2772  037A  2B7C               	goto	i1l2206
  2773  037B  2B96               	goto	i1l205
  2774  037C                     i1l2206:
  2775                           
  2776                           ; Switch size 1, requested type "simple"
  2777                           ; Number of cases is 8, Range of values is 1 to 8
  2778                           ; switch strategies available:
  2779                           ; Name         Instructions Cycles
  2780                           ; simple_byte           25    13 (average)
  2781                           ; direct_byte           35    11 (fixed)
  2782                           ; jumptable            263     9 (fixed)
  2783                           ;	Chosen strategy is simple_byte
  2784  037C  0871               	movf	??i1_filas,w
  2785  037D  3A01               	xorlw	1	; case 1
  2786  037E  1903               	skipnz
  2787  037F  2B34               	goto	i1l1538
  2788  0380  3A03               	xorlw	3	; case 2
  2789  0381  1903               	skipnz
  2790  0382  2B3C               	goto	i1l1540
  2791  0383  3A01               	xorlw	1	; case 3
  2792  0384  1903               	skipnz
  2793  0385  2B44               	goto	i1l1542
  2794  0386  3A07               	xorlw	7	; case 4
  2795  0387  1903               	skipnz
  2796  0388  2B4C               	goto	i1l1544
  2797  0389  3A01               	xorlw	1	; case 5
  2798  038A  1903               	skipnz
  2799  038B  2B54               	goto	i1l1546
  2800  038C  3A03               	xorlw	3	; case 6
  2801  038D  1903               	skipnz
  2802  038E  2B5C               	goto	i1l1548
  2803  038F  3A01               	xorlw	1	; case 7
  2804  0390  1903               	skipnz
  2805  0391  2B64               	goto	i1l1550
  2806  0392  3A0F               	xorlw	15	; case 8
  2807  0393  1903               	skipnz
  2808  0394  2B6C               	goto	i1l1552
  2809  0395  2B96               	goto	i1l205
  2810  0396                     i1l205:
  2811  0396  0008               	return
  2812  0397                     __end_ofi1_filas:
  2813                           
  2814                           	psect	text10
  2815  0397                     __ptext10:	
  2816 ;; *************** function i1_columnas *****************
  2817 ;; Defined at:
  2818 ;;		line 449 in file "main.c"
  2819 ;; Parameters:    Size  Location     Type
  2820 ;;  columna         1    wreg     unsigned char 
  2821 ;;  value           1    0[COMMON] unsigned char 
  2822 ;; Auto vars:     Size  Location     Type
  2823 ;;  columna         1    3[COMMON] unsigned char 
  2824 ;; Return value:  Size  Location     Type
  2825 ;;                  1    wreg      void 
  2826 ;; Registers used:
  2827 ;;		wreg, fsr0l, fsr0h, status,2, status,0
  2828 ;; Tracked objects:
  2829 ;;		On entry : 0/0
  2830 ;;		On exit  : 0/0
  2831 ;;		Unchanged: 0/0
  2832 ;; Data sizes:     COMMON   BANK0   BANK1   BANK3   BANK2
  2833 ;;      Params:         1       0       0       0       0
  2834 ;;      Locals:         1       0       0       0       0
  2835 ;;      Temps:          2       0       0       0       0
  2836 ;;      Totals:         4       0       0       0       0
  2837 ;;Total ram usage:        4 bytes
  2838 ;; Hardware stack levels used:    1
  2839 ;; This function calls:
  2840 ;;		Nothing
  2841 ;; This function is called by:
  2842 ;;		_TMR0_interrupt
  2843 ;; This function uses a non-reentrant model
  2844 ;;
  2845                           
  2846                           
  2847                           ;psect for function i1_columnas
  2848  0397                     i1_columnas:
  2849                           
  2850                           ;incstack = 0
  2851                           ; Regs used in i1_columnas: [wreg-fsr0h+status,2+status,0]
  2852                           ;i1columnas@columna stored from wreg
  2853  0397  00F3               	movwf	i1columnas@columna
  2854  0398                     i1l1562:
  2855                           
  2856                           ;main.c: 450:     switch (columna){
  2857  0398  2BD9               	goto	i1l1582
  2858  0399                     i1l1564:
  2859                           
  2860                           ;main.c: 452:             PORTCbits.RC5 = value;
  2861  0399  0C70               	rrf	i1columnas@value,w
  2862  039A  1283               	bcf	3,5	;RP0=0, select bank0
  2863  039B  1303               	bcf	3,6	;RP1=0, select bank0
  2864  039C  1C03               	skipc
  2865  039D  1287               	bcf	7,5	;volatile
  2866  039E  1803               	skipnc
  2867  039F  1687               	bsf	7,5	;volatile
  2868                           
  2869                           ;main.c: 453:             break;
  2870  03A0  2BFB               	goto	i1l219
  2871  03A1                     i1l1566:
  2872                           
  2873                           ;main.c: 455:             PORTCbits.RC3 = value;
  2874  03A1  0C70               	rrf	i1columnas@value,w
  2875  03A2  1283               	bcf	3,5	;RP0=0, select bank0
  2876  03A3  1303               	bcf	3,6	;RP1=0, select bank0
  2877  03A4  1C03               	skipc
  2878  03A5  1187               	bcf	7,3	;volatile
  2879  03A6  1803               	skipnc
  2880  03A7  1587               	bsf	7,3	;volatile
  2881                           
  2882                           ;main.c: 456:             break;
  2883  03A8  2BFB               	goto	i1l219
  2884  03A9                     i1l1568:
  2885                           
  2886                           ;main.c: 458:             PORTCbits.RC2 = value;
  2887  03A9  0C70               	rrf	i1columnas@value,w
  2888  03AA  1283               	bcf	3,5	;RP0=0, select bank0
  2889  03AB  1303               	bcf	3,6	;RP1=0, select bank0
  2890  03AC  1C03               	skipc
  2891  03AD  1107               	bcf	7,2	;volatile
  2892  03AE  1803               	skipnc
  2893  03AF  1507               	bsf	7,2	;volatile
  2894                           
  2895                           ;main.c: 459:             break;
  2896  03B0  2BFB               	goto	i1l219
  2897  03B1                     i1l1570:
  2898                           
  2899                           ;main.c: 461:             PORTDbits.RD4 = value;
  2900  03B1  0C70               	rrf	i1columnas@value,w
  2901  03B2  1283               	bcf	3,5	;RP0=0, select bank0
  2902  03B3  1303               	bcf	3,6	;RP1=0, select bank0
  2903  03B4  1C03               	skipc
  2904  03B5  1208               	bcf	8,4	;volatile
  2905  03B6  1803               	skipnc
  2906  03B7  1608               	bsf	8,4	;volatile
  2907                           
  2908                           ;main.c: 462:             break;
  2909  03B8  2BFB               	goto	i1l219
  2910  03B9                     i1l1572:
  2911                           
  2912                           ;main.c: 464:             PORTCbits.RC0 = value;
  2913  03B9  0C70               	rrf	i1columnas@value,w
  2914  03BA  1283               	bcf	3,5	;RP0=0, select bank0
  2915  03BB  1303               	bcf	3,6	;RP1=0, select bank0
  2916  03BC  1C03               	skipc
  2917  03BD  1007               	bcf	7,0	;volatile
  2918  03BE  1803               	skipnc
  2919  03BF  1407               	bsf	7,0	;volatile
  2920                           
  2921                           ;main.c: 465:             break;
  2922  03C0  2BFB               	goto	i1l219
  2923  03C1                     i1l1574:
  2924                           
  2925                           ;main.c: 467:             PORTCbits.RC7 = value;
  2926  03C1  0C70               	rrf	i1columnas@value,w
  2927  03C2  1283               	bcf	3,5	;RP0=0, select bank0
  2928  03C3  1303               	bcf	3,6	;RP1=0, select bank0
  2929  03C4  1C03               	skipc
  2930  03C5  1387               	bcf	7,7	;volatile
  2931  03C6  1803               	skipnc
  2932  03C7  1787               	bsf	7,7	;volatile
  2933                           
  2934                           ;main.c: 468:             break;
  2935  03C8  2BFB               	goto	i1l219
  2936  03C9                     i1l1576:
  2937                           
  2938                           ;main.c: 470:             PORTDbits.RD3 = value;
  2939  03C9  0C70               	rrf	i1columnas@value,w
  2940  03CA  1283               	bcf	3,5	;RP0=0, select bank0
  2941  03CB  1303               	bcf	3,6	;RP1=0, select bank0
  2942  03CC  1C03               	skipc
  2943  03CD  1188               	bcf	8,3	;volatile
  2944  03CE  1803               	skipnc
  2945  03CF  1588               	bsf	8,3	;volatile
  2946                           
  2947                           ;main.c: 471:             break;
  2948  03D0  2BFB               	goto	i1l219
  2949  03D1                     i1l1578:
  2950                           
  2951                           ;main.c: 473:             PORTDbits.RD2 = value;
  2952  03D1  0C70               	rrf	i1columnas@value,w
  2953  03D2  1283               	bcf	3,5	;RP0=0, select bank0
  2954  03D3  1303               	bcf	3,6	;RP1=0, select bank0
  2955  03D4  1C03               	skipc
  2956  03D5  1108               	bcf	8,2	;volatile
  2957  03D6  1803               	skipnc
  2958  03D7  1508               	bsf	8,2	;volatile
  2959                           
  2960                           ;main.c: 474:             break;
  2961  03D8  2BFB               	goto	i1l219
  2962  03D9                     i1l1582:
  2963  03D9  0873               	movf	i1columnas@columna,w
  2964  03DA  00F1               	movwf	??i1_columnas
  2965  03DB  01F2               	clrf	??i1_columnas+1
  2966                           
  2967                           ; Switch on 2 bytes has been partitioned into a top level switch of size 1, and 1 sub-sw
      +                          itches
  2968                           ; Switch size 1, requested type "simple"
  2969                           ; Number of cases is 1, Range of values is 0 to 0
  2970                           ; switch strategies available:
  2971                           ; Name         Instructions Cycles
  2972                           ; simple_byte            4     3 (average)
  2973                           ; direct_byte           11     8 (fixed)
  2974                           ; jumptable            260     6 (fixed)
  2975                           ;	Chosen strategy is simple_byte
  2976  03DC  0872               	movf	??i1_columnas+1,w
  2977  03DD  3A00               	xorlw	0	; case 0
  2978  03DE  1903               	skipnz
  2979  03DF  2BE1               	goto	i1l2208
  2980  03E0  2BFB               	goto	i1l219
  2981  03E1                     i1l2208:
  2982                           
  2983                           ; Switch size 1, requested type "simple"
  2984                           ; Number of cases is 8, Range of values is 1 to 8
  2985                           ; switch strategies available:
  2986                           ; Name         Instructions Cycles
  2987                           ; simple_byte           25    13 (average)
  2988                           ; direct_byte           35    11 (fixed)
  2989                           ; jumptable            263     9 (fixed)
  2990                           ;	Chosen strategy is simple_byte
  2991  03E1  0871               	movf	??i1_columnas,w
  2992  03E2  3A01               	xorlw	1	; case 1
  2993  03E3  1903               	skipnz
  2994  03E4  2B99               	goto	i1l1564
  2995  03E5  3A03               	xorlw	3	; case 2
  2996  03E6  1903               	skipnz
  2997  03E7  2BA1               	goto	i1l1566
  2998  03E8  3A01               	xorlw	1	; case 3
  2999  03E9  1903               	skipnz
  3000  03EA  2BA9               	goto	i1l1568
  3001  03EB  3A07               	xorlw	7	; case 4
  3002  03EC  1903               	skipnz
  3003  03ED  2BB1               	goto	i1l1570
  3004  03EE  3A01               	xorlw	1	; case 5
  3005  03EF  1903               	skipnz
  3006  03F0  2BB9               	goto	i1l1572
  3007  03F1  3A03               	xorlw	3	; case 6
  3008  03F2  1903               	skipnz
  3009  03F3  2BC1               	goto	i1l1574
  3010  03F4  3A01               	xorlw	1	; case 7
  3011  03F5  1903               	skipnz
  3012  03F6  2BC9               	goto	i1l1576
  3013  03F7  3A0F               	xorlw	15	; case 8
  3014  03F8  1903               	skipnz
  3015  03F9  2BD1               	goto	i1l1578
  3016  03FA  2BFB               	goto	i1l219
  3017  03FB                     i1l219:
  3018  03FB  0008               	return
  3019  03FC                     __end_ofi1_columnas:
  3020                           
  3021                           	psect	text11
  3022  03FC                     __ptext11:	
  3023 ;; *************** function _IOCB_interrupt *****************
  3024 ;; Defined at:
  3025 ;;		line 326 in file "main.c"
  3026 ;; Parameters:    Size  Location     Type
  3027 ;;		None
  3028 ;; Auto vars:     Size  Location     Type
  3029 ;;		None
  3030 ;; Return value:  Size  Location     Type
  3031 ;;                  1    wreg      void 
  3032 ;; Registers used:
  3033 ;;		wreg, status,2, status,0, pclath, cstack
  3034 ;; Tracked objects:
  3035 ;;		On entry : 0/0
  3036 ;;		On exit  : 0/0
  3037 ;;		Unchanged: 0/0
  3038 ;; Data sizes:     COMMON   BANK0   BANK1   BANK3   BANK2
  3039 ;;      Params:         0       0       0       0       0
  3040 ;;      Locals:         0       0       0       0       0
  3041 ;;      Temps:          0       1       0       0       0
  3042 ;;      Totals:         0       1       0       0       0
  3043 ;;Total ram usage:        1 bytes
  3044 ;; Hardware stack levels used:    1
  3045 ;; Hardware stack levels required when called:    3
  3046 ;; This function calls:
  3047 ;;		_reiniciar
  3048 ;; This function is called by:
  3049 ;;		_isr
  3050 ;; This function uses a non-reentrant model
  3051 ;;
  3052                           
  3053                           
  3054                           ;psect for function _IOCB_interrupt
  3055  03FC                     _IOCB_interrupt:
  3056  03FC                     i1l1764:	
  3057                           ;incstack = 0
  3058                           ; Regs used in _IOCB_interrupt: [wreg+status,2+status,0+pclath+cstack]
  3059                           
  3060                           
  3061                           ;main.c: 328:     if(upFlag){
  3062  03FC  1283               	bcf	3,5	;RP0=0, select bank0
  3063  03FD  1303               	bcf	3,6	;RP1=0, select bank0
  3064  03FE  0853               	movf	_upFlag,w
  3065  03FF  1903               	btfsc	3,2
  3066  0400  2C02               	goto	u93_21
  3067  0401  2C03               	goto	u93_20
  3068  0402                     u93_21:
  3069  0402  2C06               	goto	i1l1768
  3070  0403                     u93_20:
  3071  0403                     i1l1766:
  3072                           
  3073                           ;main.c: 329:         prevFlagDirec = 1;
  3074  0403  01CD               	clrf	_prevFlagDirec
  3075  0404  0ACD               	incf	_prevFlagDirec,f
  3076                           
  3077                           ;main.c: 330:     }else if(downFlag){
  3078  0405  2C24               	goto	i1l1780
  3079  0406                     i1l1768:
  3080  0406  0852               	movf	_downFlag,w
  3081  0407  1903               	btfsc	3,2
  3082  0408  2C0A               	goto	u94_21
  3083  0409  2C0B               	goto	u94_20
  3084  040A                     u94_21:
  3085  040A  2C10               	goto	i1l1772
  3086  040B                     u94_20:
  3087  040B                     i1l1770:
  3088                           
  3089                           ;main.c: 331:         prevFlagDirec = 2;
  3090  040B  3002               	movlw	2
  3091  040C  00A7               	movwf	??_IOCB_interrupt
  3092  040D  0827               	movf	??_IOCB_interrupt,w
  3093  040E  00CD               	movwf	_prevFlagDirec
  3094                           
  3095                           ;main.c: 332:     }else if(leftFlag){
  3096  040F  2C24               	goto	i1l1780
  3097  0410                     i1l1772:
  3098  0410  0851               	movf	_leftFlag,w
  3099  0411  1903               	btfsc	3,2
  3100  0412  2C14               	goto	u95_21
  3101  0413  2C15               	goto	u95_20
  3102  0414                     u95_21:
  3103  0414  2C1A               	goto	i1l1776
  3104  0415                     u95_20:
  3105  0415                     i1l1774:
  3106                           
  3107                           ;main.c: 333:         prevFlagDirec = 3;
  3108  0415  3003               	movlw	3
  3109  0416  00A7               	movwf	??_IOCB_interrupt
  3110  0417  0827               	movf	??_IOCB_interrupt,w
  3111  0418  00CD               	movwf	_prevFlagDirec
  3112                           
  3113                           ;main.c: 334:     }else if(rigthFlag){
  3114  0419  2C24               	goto	i1l1780
  3115  041A                     i1l1776:
  3116  041A  0850               	movf	_rigthFlag,w
  3117  041B  1903               	btfsc	3,2
  3118  041C  2C1E               	goto	u96_21
  3119  041D  2C1F               	goto	u96_20
  3120  041E                     u96_21:
  3121  041E  2C24               	goto	i1l176
  3122  041F                     u96_20:
  3123  041F                     i1l1778:
  3124                           
  3125                           ;main.c: 335:         prevFlagDirec = 4;
  3126  041F  3004               	movlw	4
  3127  0420  00A7               	movwf	??_IOCB_interrupt
  3128  0421  0827               	movf	??_IOCB_interrupt,w
  3129  0422  00CD               	movwf	_prevFlagDirec
  3130  0423  2C24               	goto	i1l1780
  3131  0424                     i1l176:
  3132  0424                     i1l1780:
  3133                           
  3134                           ;main.c: 338:     if (PORTBbits.RB0 == 0){
  3135  0424  1806               	btfsc	6,0	;volatile
  3136  0425  2C27               	goto	u97_21
  3137  0426  2C28               	goto	u97_20
  3138  0427                     u97_21:
  3139  0427  2C2E               	goto	i1l180
  3140  0428                     u97_20:
  3141  0428                     i1l1782:
  3142                           
  3143                           ;main.c: 340:         upFlag = 1;
  3144  0428  01D3               	clrf	_upFlag
  3145  0429  0AD3               	incf	_upFlag,f
  3146  042A                     i1l1784:
  3147                           
  3148                           ;main.c: 341:         downFlag = 0;
  3149  042A  01D2               	clrf	_downFlag
  3150                           
  3151                           ;main.c: 342:         leftFlag = 0;
  3152  042B  01D1               	clrf	_leftFlag
  3153                           
  3154                           ;main.c: 343:         rigthFlag = 0;
  3155  042C  01D0               	clrf	_rigthFlag
  3156                           
  3157                           ;main.c: 345:     }else if (PORTBbits.RB1 == 0){
  3158  042D  2C5A               	goto	i1l1806
  3159  042E                     i1l180:
  3160  042E  1886               	btfsc	6,1	;volatile
  3161  042F  2C31               	goto	u98_21
  3162  0430  2C32               	goto	u98_20
  3163  0431                     u98_21:
  3164  0431  2C44               	goto	i1l182
  3165  0432                     u98_20:
  3166  0432                     i1l1786:
  3167                           
  3168                           ;main.c: 347:         upFlag = 0;
  3169  0432  01D3               	clrf	_upFlag
  3170  0433                     i1l1788:
  3171                           
  3172                           ;main.c: 348:         downFlag = 1;
  3173  0433  01D2               	clrf	_downFlag
  3174  0434  0AD2               	incf	_downFlag,f
  3175                           
  3176                           ;main.c: 349:         leftFlag = 0;
  3177  0435  01D1               	clrf	_leftFlag
  3178                           
  3179                           ;main.c: 350:         rigthFlag = 0;
  3180  0436  01D0               	clrf	_rigthFlag
  3181  0437                     i1l1790:
  3182                           
  3183                           ;main.c: 351:         inicio = 1;
  3184  0437  01D9               	clrf	_inicio
  3185  0438  0AD9               	incf	_inicio,f
  3186  0439                     i1l1792:
  3187                           
  3188                           ;main.c: 352:         if(end){
  3189  0439  0858               	movf	_end,w
  3190  043A  1903               	btfsc	3,2
  3191  043B  2C3D               	goto	u99_21
  3192  043C  2C3E               	goto	u99_20
  3193  043D                     u99_21:
  3194  043D  2C5A               	goto	i1l1806
  3195  043E                     u99_20:
  3196  043E                     i1l1794:
  3197                           
  3198                           ;main.c: 353:             reiniciar();
  3199  043E  120A  118A  2626  120A  118A  	fcall	_reiniciar
  3200  0443  2C5A               	goto	i1l1806
  3201  0444                     i1l182:
  3202  0444  1906               	btfsc	6,2	;volatile
  3203  0445  2C47               	goto	u100_21
  3204  0446  2C48               	goto	u100_20
  3205  0447                     u100_21:
  3206  0447  2C4E               	goto	i1l185
  3207  0448                     u100_20:
  3208  0448                     i1l1796:
  3209                           
  3210                           ;main.c: 359:         upFlag = 0;
  3211  0448  01D3               	clrf	_upFlag
  3212                           
  3213                           ;main.c: 360:         downFlag = 0;
  3214  0449  01D2               	clrf	_downFlag
  3215  044A                     i1l1798:
  3216                           
  3217                           ;main.c: 361:         leftFlag = 1;
  3218  044A  01D1               	clrf	_leftFlag
  3219  044B  0AD1               	incf	_leftFlag,f
  3220                           
  3221                           ;main.c: 362:         rigthFlag = 0;
  3222  044C  01D0               	clrf	_rigthFlag
  3223                           
  3224                           ;main.c: 364:     }else if (PORTBbits.RB3 == 0){
  3225  044D  2C5A               	goto	i1l1806
  3226  044E                     i1l185:
  3227  044E  1986               	btfsc	6,3	;volatile
  3228  044F  2C51               	goto	u101_21
  3229  0450  2C52               	goto	u101_20
  3230  0451                     u101_21:
  3231  0451  2C5A               	goto	i1l184
  3232  0452                     u101_20:
  3233  0452                     i1l1800:
  3234                           
  3235                           ;main.c: 366:         upFlag = 0;
  3236  0452  01D3               	clrf	_upFlag
  3237                           
  3238                           ;main.c: 367:         downFlag = 0;
  3239  0453  01D2               	clrf	_downFlag
  3240                           
  3241                           ;main.c: 368:         leftFlag = 0;
  3242  0454  01D1               	clrf	_leftFlag
  3243  0455                     i1l1802:
  3244                           
  3245                           ;main.c: 369:         rigthFlag = 1;
  3246  0455  01D0               	clrf	_rigthFlag
  3247  0456  0AD0               	incf	_rigthFlag,f
  3248  0457                     i1l1804:
  3249                           
  3250                           ;main.c: 370:         inicio = 1;
  3251  0457  01D9               	clrf	_inicio
  3252  0458  0AD9               	incf	_inicio,f
  3253  0459  2C5A               	goto	i1l1806
  3254  045A                     i1l184:
  3255  045A                     i1l1806:
  3256                           
  3257                           ;main.c: 387:     INTCONbits.RBIF = 0;
  3258  045A  100B               	bcf	11,0	;volatile
  3259  045B                     i1l188:
  3260  045B  0008               	return
  3261  045C                     __end_of_IOCB_interrupt:
  3262                           
  3263                           	psect	text12
  3264  0626                     __ptext12:	
  3265 ;; *************** function _reiniciar *****************
  3266 ;; Defined at:
  3267 ;;		line 393 in file "main.c"
  3268 ;; Parameters:    Size  Location     Type
  3269 ;;		None
  3270 ;; Auto vars:     Size  Location     Type
  3271 ;;		None
  3272 ;; Return value:  Size  Location     Type
  3273 ;;                  1    wreg      void 
  3274 ;; Registers used:
  3275 ;;		wreg, status,2, status,0, pclath, cstack
  3276 ;; Tracked objects:
  3277 ;;		On entry : 0/0
  3278 ;;		On exit  : 0/0
  3279 ;;		Unchanged: 0/0
  3280 ;; Data sizes:     COMMON   BANK0   BANK1   BANK3   BANK2
  3281 ;;      Params:         0       0       0       0       0
  3282 ;;      Locals:         0       0       0       0       0
  3283 ;;      Temps:          1       0       0       0       0
  3284 ;;      Totals:         1       0       0       0       0
  3285 ;;Total ram usage:        1 bytes
  3286 ;; Hardware stack levels used:    1
  3287 ;; Hardware stack levels required when called:    2
  3288 ;; This function calls:
  3289 ;;		i1_rand
  3290 ;; This function is called by:
  3291 ;;		_IOCB_interrupt
  3292 ;; This function uses a non-reentrant model
  3293 ;;
  3294                           
  3295                           
  3296                           ;psect for function _reiniciar
  3297  0626                     _reiniciar:
  3298  0626                     i1l1518:	
  3299                           ;incstack = 0
  3300                           ; Regs used in _reiniciar: [wreg+status,2+status,0+pclath+cstack]
  3301                           
  3302                           
  3303                           ;main.c: 394:     upFlag = 0;
  3304  0626  1283               	bcf	3,5	;RP0=0, select bank0
  3305  0627  1303               	bcf	3,6	;RP1=0, select bank0
  3306  0628  01D3               	clrf	_upFlag
  3307                           
  3308                           ;main.c: 395:     downFlag = 0;
  3309  0629  01D2               	clrf	_downFlag
  3310                           
  3311                           ;main.c: 396:     leftFlag = 0;
  3312  062A  01D1               	clrf	_leftFlag
  3313                           
  3314                           ;main.c: 397:     rigthFlag = 0;
  3315  062B  01D0               	clrf	_rigthFlag
  3316                           
  3317                           ;main.c: 399:     coso = 0;
  3318  062C  01C1               	clrf	_coso
  3319  062D  01C2               	clrf	_coso+1
  3320                           
  3321                           ;main.c: 401:     banderaMulti = 0;
  3322  062E  01CF               	clrf	_banderaMulti
  3323                           
  3324                           ;main.c: 403:     inicio = 0;
  3325  062F  01D9               	clrf	_inicio
  3326                           
  3327                           ;main.c: 404:     end = 0;
  3328  0630  01D8               	clrf	_end
  3329  0631                     i1l1520:
  3330                           
  3331                           ;main.c: 405:     cFila=1;
  3332  0631  01E1               	clrf	_cFila
  3333  0632  0AE1               	incf	_cFila,f
  3334  0633                     i1l1522:
  3335                           
  3336                           ;main.c: 406:     cColumna=1;
  3337  0633  01E0               	clrf	_cColumna
  3338  0634  0AE0               	incf	_cColumna,f
  3339  0635                     i1l1524:
  3340                           
  3341                           ;main.c: 408:     longitud = 1;
  3342  0635  01DF               	clrf	_longitud
  3343  0636  0ADF               	incf	_longitud,f
  3344  0637                     i1l1526:
  3345                           
  3346                           ;main.c: 410:     semillaF = (rand() % 8);
  3347  0637  120A  118A  2599  120A  118A  	fcall	i1_rand
  3348  063C  1283               	bcf	3,5	;RP0=0, select bank0
  3349  063D  1303               	bcf	3,6	;RP1=0, select bank0
  3350  063E  0820               	movf	?i1_rand,w
  3351  063F  3907               	andlw	7
  3352  0640  00FD               	movwf	??_reiniciar
  3353  0641  087D               	movf	??_reiniciar,w
  3354  0642  00D7               	movwf	_semillaF
  3355  0643                     i1l1528:
  3356                           
  3357                           ;main.c: 411:     semillaC = (rand() % 8);
  3358  0643  120A  118A  2599  120A  118A  	fcall	i1_rand
  3359  0648  1283               	bcf	3,5	;RP0=0, select bank0
  3360  0649  1303               	bcf	3,6	;RP1=0, select bank0
  3361  064A  0820               	movf	?i1_rand,w
  3362  064B  3907               	andlw	7
  3363  064C  00FD               	movwf	??_reiniciar
  3364  064D  087D               	movf	??_reiniciar,w
  3365  064E  00D6               	movwf	_semillaC
  3366  064F                     i1l1530:
  3367                           
  3368                           ;main.c: 413:     semillaF = semillaF + 1;
  3369  064F  0857               	movf	_semillaF,w
  3370  0650  3E01               	addlw	1
  3371  0651  00FD               	movwf	??_reiniciar
  3372  0652  087D               	movf	??_reiniciar,w
  3373  0653  00D7               	movwf	_semillaF
  3374  0654                     i1l1532:
  3375                           
  3376                           ;main.c: 414:     semillaC = semillaC + 1;
  3377  0654  0856               	movf	_semillaC,w
  3378  0655  3E01               	addlw	1
  3379  0656  00FD               	movwf	??_reiniciar
  3380  0657  087D               	movf	??_reiniciar,w
  3381  0658  00D6               	movwf	_semillaC
  3382  0659                     i1l191:
  3383  0659  0008               	return
  3384  065A                     __end_of_reiniciar:
  3385                           
  3386                           	psect	text13
  3387  0599                     __ptext13:	
  3388 ;; *************** function i1_rand *****************
  3389 ;; Defined at:
  3390 ;;		line 12 in file "C:\Program Files\Microchip\xc8\v2.31\pic\sources\c90\common\rand.c"
  3391 ;; Parameters:    Size  Location     Type
  3392 ;;		None
  3393 ;; Auto vars:     Size  Location     Type
  3394 ;;		None
  3395 ;; Return value:  Size  Location     Type
  3396 ;;                  2    0[BANK0 ] int 
  3397 ;; Registers used:
  3398 ;;		wreg, status,2, status,0, pclath, cstack
  3399 ;; Tracked objects:
  3400 ;;		On entry : 0/0
  3401 ;;		On exit  : 0/0
  3402 ;;		Unchanged: 0/0
  3403 ;; Data sizes:     COMMON   BANK0   BANK1   BANK3   BANK2
  3404 ;;      Params:         0       2       0       0       0
  3405 ;;      Locals:         0       0       0       0       0
  3406 ;;      Temps:          0       5       0       0       0
  3407 ;;      Totals:         0       7       0       0       0
  3408 ;;Total ram usage:        7 bytes
  3409 ;; Hardware stack levels used:    1
  3410 ;; Hardware stack levels required when called:    1
  3411 ;; This function calls:
  3412 ;;		i1___lmul
  3413 ;; This function is called by:
  3414 ;;		_reiniciar
  3415 ;; This function uses a non-reentrant model
  3416 ;;
  3417                           
  3418                           
  3419                           ;psect for function i1_rand
  3420  0599                     i1_rand:
  3421  0599                     i1l1446:	
  3422                           ;incstack = 0
  3423                           ; Regs used in i1_rand: [wreg+status,2+status,0+pclath+cstack]
  3424                           
  3425  0599  1283               	bcf	3,5	;RP0=0, select bank0
  3426  059A  1303               	bcf	3,6	;RP1=0, select bank0
  3427  059B  085D               	movf	_randx+3,w
  3428  059C  00F3               	movwf	i1___lmul@multiplier+3
  3429  059D  085C               	movf	_randx+2,w
  3430  059E  00F2               	movwf	i1___lmul@multiplier+2
  3431  059F  085B               	movf	_randx+1,w
  3432  05A0  00F1               	movwf	i1___lmul@multiplier+1
  3433  05A1  085A               	movf	_randx,w
  3434  05A2  00F0               	movwf	i1___lmul@multiplier
  3435  05A3  3041               	movlw	65
  3436  05A4  00F7               	movwf	i1___lmul@multiplicand+3
  3437  05A5  30C6               	movlw	198
  3438  05A6  00F6               	movwf	i1___lmul@multiplicand+2
  3439  05A7  304E               	movlw	78
  3440  05A8  00F5               	movwf	i1___lmul@multiplicand+1
  3441  05A9  306D               	movlw	109
  3442  05AA  00F4               	movwf	i1___lmul@multiplicand
  3443  05AB  120A  118A  25E0  120A  118A  	fcall	i1___lmul
  3444  05B0  0873               	movf	?i1___lmul+3,w
  3445  05B1  1283               	bcf	3,5	;RP0=0, select bank0
  3446  05B2  1303               	bcf	3,6	;RP1=0, select bank0
  3447  05B3  00DD               	movwf	_randx+3
  3448  05B4  0872               	movf	?i1___lmul+2,w
  3449  05B5  00DC               	movwf	_randx+2
  3450  05B6  0871               	movf	?i1___lmul+1,w
  3451  05B7  00DB               	movwf	_randx+1
  3452  05B8  0870               	movf	?i1___lmul,w
  3453  05B9  00DA               	movwf	_randx
  3454  05BA                     i1l1448:
  3455  05BA  3039               	movlw	57
  3456  05BB  07DA               	addwf	_randx,f
  3457  05BC  3030               	movlw	48
  3458  05BD  1803               	skipnc
  3459  05BE  3031               	movlw	49
  3460  05BF  07DB               	addwf	_randx+1,f
  3461  05C0  3000               	movlw	0
  3462  05C1  1803               	skipnc
  3463  05C2  3001               	movlw	1
  3464  05C3  07DC               	addwf	_randx+2,f
  3465  05C4  3000               	movlw	0
  3466  05C5  1803               	skipnc
  3467  05C6  3001               	movlw	1
  3468  05C7  07DD               	addwf	_randx+3,f
  3469  05C8                     i1l1450:
  3470  05C8  085A               	movf	_randx,w
  3471  05C9  00A2               	movwf	??i1_rand
  3472  05CA  085B               	movf	_randx+1,w
  3473  05CB  00A3               	movwf	??i1_rand+1
  3474  05CC  085C               	movf	_randx+2,w
  3475  05CD  00A4               	movwf	??i1_rand+2
  3476  05CE  085D               	movf	_randx+3,w
  3477  05CF  00A5               	movwf	??i1_rand+3
  3478  05D0  3010               	movlw	16
  3479  05D1  00A6               	movwf	??i1_rand+4
  3480  05D2                     u74_25:
  3481  05D2  0D25               	rlf	??i1_rand+3,w
  3482  05D3  0CA5               	rrf	??i1_rand+3,f
  3483  05D4  0CA4               	rrf	??i1_rand+2,f
  3484  05D5  0CA3               	rrf	??i1_rand+1,f
  3485  05D6  0CA2               	rrf	??i1_rand,f
  3486  05D7                     u74_20:
  3487  05D7  0BA6               	decfsz	??i1_rand+4,f
  3488  05D8  2DD2               	goto	u74_25
  3489  05D9  30FF               	movlw	255
  3490  05DA  0522               	andwf	??i1_rand,w
  3491  05DB  00A0               	movwf	?i1_rand
  3492  05DC  307F               	movlw	127
  3493  05DD  0523               	andwf	??i1_rand+1,w
  3494  05DE  00A1               	movwf	?i1_rand+1
  3495  05DF                     i1l768:
  3496  05DF  0008               	return
  3497  05E0                     __end_ofi1_rand:
  3498                           
  3499                           	psect	text14
  3500  05E0                     __ptext14:	
  3501 ;; *************** function i1___lmul *****************
  3502 ;; Defined at:
  3503 ;;		line 15 in file "C:\Program Files\Microchip\xc8\v2.31\pic\sources\c90\common\Umul32.c"
  3504 ;; Parameters:    Size  Location     Type
  3505 ;;  multiplier      4    0[COMMON] unsigned long 
  3506 ;;  multiplicand    4    4[COMMON] unsigned long 
  3507 ;; Auto vars:     Size  Location     Type
  3508 ;;  product         4    9[COMMON] unsigned long 
  3509 ;; Return value:  Size  Location     Type
  3510 ;;                  4    0[COMMON] unsigned long 
  3511 ;; Registers used:
  3512 ;;		wreg, status,2, status,0
  3513 ;; Tracked objects:
  3514 ;;		On entry : 0/0
  3515 ;;		On exit  : 0/0
  3516 ;;		Unchanged: 0/0
  3517 ;; Data sizes:     COMMON   BANK0   BANK1   BANK3   BANK2
  3518 ;;      Params:         8       0       0       0       0
  3519 ;;      Locals:         4       0       0       0       0
  3520 ;;      Temps:          1       0       0       0       0
  3521 ;;      Totals:        13       0       0       0       0
  3522 ;;Total ram usage:       13 bytes
  3523 ;; Hardware stack levels used:    1
  3524 ;; This function calls:
  3525 ;;		Nothing
  3526 ;; This function is called by:
  3527 ;;		i1_rand
  3528 ;; This function uses a non-reentrant model
  3529 ;;
  3530                           
  3531                           
  3532                           ;psect for function i1___lmul
  3533  05E0                     i1___lmul:
  3534  05E0                     i1l1418:	
  3535                           ;incstack = 0
  3536                           ; Regs used in i1___lmul: [wreg+status,2+status,0]
  3537                           
  3538  05E0  3000               	movlw	0
  3539  05E1  00FC               	movwf	i1___lmul@product+3
  3540  05E2  3000               	movlw	0
  3541  05E3  00FB               	movwf	i1___lmul@product+2
  3542  05E4  3000               	movlw	0
  3543  05E5  00FA               	movwf	i1___lmul@product+1
  3544  05E6  3000               	movlw	0
  3545  05E7  00F9               	movwf	i1___lmul@product
  3546  05E8                     i1l1420:
  3547  05E8  1C70               	btfss	i1___lmul@multiplier,0
  3548  05E9  2DEB               	goto	u64_21
  3549  05EA  2DEC               	goto	u64_20
  3550  05EB                     u64_21:
  3551  05EB  2E03               	goto	i1l1424
  3552  05EC                     u64_20:
  3553  05EC                     i1l1422:
  3554  05EC  0874               	movf	i1___lmul@multiplicand,w
  3555  05ED  07F9               	addwf	i1___lmul@product,f
  3556  05EE  0875               	movf	i1___lmul@multiplicand+1,w
  3557  05EF  1103               	clrz
  3558  05F0  1803               	skipnc
  3559  05F1  3E01               	addlw	1
  3560  05F2  1903               	skipnz
  3561  05F3  2DF5               	goto	u65_21
  3562  05F4  07FA               	addwf	i1___lmul@product+1,f
  3563  05F5                     u65_21:
  3564  05F5  0876               	movf	i1___lmul@multiplicand+2,w
  3565  05F6  1103               	clrz
  3566  05F7  1803               	skipnc
  3567  05F8  3E01               	addlw	1
  3568  05F9  1903               	skipnz
  3569  05FA  2DFC               	goto	u65_22
  3570  05FB  07FB               	addwf	i1___lmul@product+2,f
  3571  05FC                     u65_22:
  3572  05FC  0877               	movf	i1___lmul@multiplicand+3,w
  3573  05FD  1103               	clrz
  3574  05FE  1803               	skipnc
  3575  05FF  3E01               	addlw	1
  3576  0600  1903               	skipnz
  3577  0601  2E03               	goto	u65_23
  3578  0602  07FC               	addwf	i1___lmul@product+3,f
  3579  0603                     u65_23:
  3580  0603                     i1l1424:
  3581  0603  3001               	movlw	1
  3582  0604  00F8               	movwf	??i1___lmul
  3583  0605                     u66_25:
  3584  0605  1003               	clrc
  3585  0606  0DF4               	rlf	i1___lmul@multiplicand,f
  3586  0607  0DF5               	rlf	i1___lmul@multiplicand+1,f
  3587  0608  0DF6               	rlf	i1___lmul@multiplicand+2,f
  3588  0609  0DF7               	rlf	i1___lmul@multiplicand+3,f
  3589  060A  0BF8               	decfsz	??i1___lmul,f
  3590  060B  2E05               	goto	u66_25
  3591  060C                     i1l1426:
  3592  060C  3001               	movlw	1
  3593  060D                     u67_25:
  3594  060D  1003               	clrc
  3595  060E  0CF3               	rrf	i1___lmul@multiplier+3,f
  3596  060F  0CF2               	rrf	i1___lmul@multiplier+2,f
  3597  0610  0CF1               	rrf	i1___lmul@multiplier+1,f
  3598  0611  0CF0               	rrf	i1___lmul@multiplier,f
  3599  0612  3EFF               	addlw	-1
  3600  0613  1D03               	skipz
  3601  0614  2E0D               	goto	u67_25
  3602  0615  0873               	movf	i1___lmul@multiplier+3,w
  3603  0616  0472               	iorwf	i1___lmul@multiplier+2,w
  3604  0617  0471               	iorwf	i1___lmul@multiplier+1,w
  3605  0618  0470               	iorwf	i1___lmul@multiplier,w
  3606  0619  1D03               	skipz
  3607  061A  2E1C               	goto	u68_21
  3608  061B  2E1D               	goto	u68_20
  3609  061C                     u68_21:
  3610  061C  2DE8               	goto	i1l1420
  3611  061D                     u68_20:
  3612  061D                     i1l1428:
  3613  061D  087C               	movf	i1___lmul@product+3,w
  3614  061E  00F3               	movwf	?i1___lmul+3
  3615  061F  087B               	movf	i1___lmul@product+2,w
  3616  0620  00F2               	movwf	?i1___lmul+2
  3617  0621  087A               	movf	i1___lmul@product+1,w
  3618  0622  00F1               	movwf	?i1___lmul+1
  3619  0623  0879               	movf	i1___lmul@product,w
  3620  0624  00F0               	movwf	?i1___lmul
  3621  0625                     i1l326:
  3622  0625  0008               	return
  3623  0626                     __end_ofi1___lmul:
  3624  007E                     btemp	set	126	;btemp
  3625  007E                     wtemp0	set	126
  3626                           
  3627                           	psect	config
  3628                           
  3629                           ;Config register CONFIG1 @ 0x2007
  3630                           ;	Oscillator Selection bits
  3631                           ;	FOSC = INTRC_NOCLKOUT, INTOSCIO oscillator: I/O function on RA6/OSC2/CLKOUT pin, I/O f
      +                          unction on RA7/OSC1/CLKIN
  3632                           ;	Watchdog Timer Enable bit
  3633                           ;	WDTE = OFF, WDT disabled and can be enabled by SWDTEN bit of the WDTCON register
  3634                           ;	Power-up Timer Enable bit
  3635                           ;	PWRTE = ON, PWRT enabled
  3636                           ;	RE3/MCLR pin function select bit
  3637                           ;	MCLRE = OFF, RE3/MCLR pin function is digital input, MCLR internally tied to VDD
  3638                           ;	Code Protection bit
  3639                           ;	CP = OFF, Program memory code protection is disabled
  3640                           ;	Data Code Protection bit
  3641                           ;	CPD = OFF, Data memory code protection is disabled
  3642                           ;	Brown Out Reset Selection bits
  3643                           ;	BOREN = OFF, BOR disabled
  3644                           ;	Internal External Switchover bit
  3645                           ;	IESO = OFF, Internal/External Switchover mode is disabled
  3646                           ;	Fail-Safe Clock Monitor Enabled bit
  3647                           ;	FCMEN = OFF, Fail-Safe Clock Monitor is disabled
  3648                           ;	Low Voltage Programming Enable bit
  3649                           ;	LVP = OFF, RB3 pin has digital I/O, HV on MCLR must be used for programming
  3650                           ;	In-Circuit Debugger Mode bit
  3651                           ;	DEBUG = 0x1, unprogrammed default
  3652  2007                     	org	8199
  3653  2007  20C4               	dw	8388
  3654                           
  3655                           ;Config register CONFIG2 @ 0x2008
  3656                           ;	Brown-out Reset Selection bit
  3657                           ;	BOR4V = BOR40V, Brown-out Reset set to 4.0V
  3658                           ;	Flash Program Memory Self Write Enable bits
  3659                           ;	WRT = OFF, Write protection off
  3660  2008                     	org	8200
  3661  2008  3FFF               	dw	16383

Data Sizes:
    Strings     0
    Constant    0
    Data        8
    BSS         25
    Persistent  2
    Stack       0

Auto Spaces:
    Space          Size  Autos    Used
    COMMON           14     14      14
    BANK0            80     33      68
    BANK1            80      3       3
    BANK3            96      0       0
    BANK2            96      0       0

Pointer List with Targets:

    None.

Critical Paths under _main in COMMON

    None.

Critical Paths under _isr in COMMON

    _TMR0_interrupt->i1_columnas
    _TMR0_interrupt->i1_filas
    _IOCB_interrupt->_reiniciar
    i1_rand->i1___lmul

Critical Paths under _main in BANK0

    _main->_setup
    _setup->_rand
    _rand->___lmul

Critical Paths under _isr in BANK0

    _isr->_IOCB_interrupt
    _reiniciar->i1_rand

Critical Paths under _main in BANK1

    None.

Critical Paths under _isr in BANK1

    None.

Critical Paths under _main in BANK3

    None.

Critical Paths under _isr in BANK3

    None.

Critical Paths under _main in BANK2

    None.

Critical Paths under _isr in BANK2

    None.

Call Graph Tables:

 ---------------------------------------------------------------------------------
 (Depth) Function   	        Calls       Base Space   Used Autos Params    Refs
 ---------------------------------------------------------------------------------
 (0) _main                                                 3     3      0    1734
                                              0 BANK1      3     3      0
                               _rand
                              _setup
 ---------------------------------------------------------------------------------
 (1) _setup                                                1     1      0    1490
                                             32 BANK0      1     1      0
                           _columnas
                              _filas
                               _rand
                              _srand
 ---------------------------------------------------------------------------------
 (2) _srand                                                2     0      2      98
                                             12 BANK0      2     0      2
 ---------------------------------------------------------------------------------
 (2) _rand                                                 7     5      2     244
                                             25 BANK0      7     5      2
                             ___lmul
 ---------------------------------------------------------------------------------
 (3) ___lmul                                              13     5      8     244
                                             12 BANK0     13     5      8
 ---------------------------------------------------------------------------------
 (2) _filas                                                4     3      1     574
                                             12 BANK0      4     3      1
 ---------------------------------------------------------------------------------
 (2) _columnas                                             4     3      1     574
                                             12 BANK0      4     3      1
 ---------------------------------------------------------------------------------
 Estimated maximum stack depth 3
 ---------------------------------------------------------------------------------
 (Depth) Function   	        Calls       Base Space   Used Autos Params    Refs
 ---------------------------------------------------------------------------------
 (4) _isr                                                  4     4      0     852
                                              8 BANK0      4     4      0
                     _IOCB_interrupt
                     _TMR0_interrupt
 ---------------------------------------------------------------------------------
 (5) _TMR0_interrupt                                       2     2      0     708
                                              4 COMMON     2     2      0
                         i1_columnas
                            i1_filas
 ---------------------------------------------------------------------------------
 (6) i1_filas                                              4     3      1     354
                                              0 COMMON     4     3      1
 ---------------------------------------------------------------------------------
 (6) i1_columnas                                           4     3      1     354
                                              0 COMMON     4     3      1
 ---------------------------------------------------------------------------------
 (5) _IOCB_interrupt                                       1     1      0     144
                                              7 BANK0      1     1      0
                          _reiniciar
 ---------------------------------------------------------------------------------
 (6) _reiniciar                                            1     1      0     144
                                             13 COMMON     1     1      0
                             i1_rand
 ---------------------------------------------------------------------------------
 (7) i1_rand                                               7     5      2     144
                                              0 BANK0      7     5      2
                           i1___lmul
 ---------------------------------------------------------------------------------
 (8) i1___lmul                                            13     5      8     144
                                              0 COMMON    13     5      8
 ---------------------------------------------------------------------------------
 Estimated maximum stack depth 8
 ---------------------------------------------------------------------------------

 Call Graph Graphs:

 _main (ROOT)
   _rand
     ___lmul
   _setup
     _columnas
     _filas
     _rand
       ___lmul
     _srand

 _isr (ROOT)
   _IOCB_interrupt
     _reiniciar
       i1_rand
         i1___lmul
   _TMR0_interrupt
     i1_columnas
     i1_filas

 Address spaces:
Name               Size   Autos  Total    Cost      Usage
BANK3               60      0       0       9        0.0%
BITBANK3            60      0       0       8        0.0%
SFR3                 0      0       0       4        0.0%
BITSFR3              0      0       0       4        0.0%
BANK2               60      0       0      11        0.0%
BITBANK2            60      0       0      10        0.0%
SFR2                 0      0       0       5        0.0%
BITSFR2              0      0       0       5        0.0%
BANK1               50      3       3       7        3.8%
BITBANK1            50      0       0       6        0.0%
SFR1                 0      0       0       2        0.0%
BITSFR1              0      0       0       2        0.0%
BANK0               50     21      44       5       85.0%
BITBANK0            50      0       0       4        0.0%
SFR0                 0      0       0       1        0.0%
BITSFR0              0      0       0       1        0.0%
COMMON               E      E       E       1      100.0%
BITCOMMON            E      0       0       0        0.0%
CODE                 0      0       0       0        0.0%
DATA                 0      0      55      12        0.0%
ABS                  0      0      55       3        0.0%
NULL                 0      0       0       0        0.0%
STACK                0      0       0       2        0.0%
EEDATA             100      0       0       0        0.0%


Microchip Technology PIC Macro Assembler V2.31 build 20201012212115 
Symbol Table                                                                                   Wed Nov 17 14:35:49 2021

       ??_TMR0_interrupt 0074                        _i 0045                        _j 0043  
                      _n 0047                        _x 0062                        pc 0002  
                     fsr 0004                      l115 0283                      l116 0281  
                    l205 04B2                      l133 027E                      l117 01AB  
                    l118 01E1                      l127 0268                      l119 01C6  
                    l226 0331                      l219 0509                      l326 0551  
                    l765 0694                      l768 0598                      u701 0521  
                    u702 0528                      u703 052F                      u730 0549  
                    u731 0548                      u715 0531                      u725 0539  
                    u750 0590                      u760 02CA                      u761 02C9  
                    u690 0518                      u770 02F0                      u691 0517  
                    u755 058B                      u771 02EF                      u765 02C6  
                    u775 02EC                      _end 0058                      _isr 065A  
                    fsr0 0004                      indf 0000               i1_columnas 0397  
                   l2010 0179                     l2100 0279                     l2020 0190  
                   l2012 017E                     l2030 01B3                     l2022 0194  
                   l2014 0185                     l2040 01E9                     l2032 01B7  
                   l2024 0198                     l2016 0186                     l2202 0498  
                   l2042 01EF                     l2050 0229                     l2034 01CA  
                   l2026 019C                     l2018 018B                     l2204 04EF  
                   l1500 04CF                     l2060 023B                     l2052 022F  
                   l2044 020F                     l2036 01CE                     l2028 01AF  
                   l1502 04D5                     l1510 04E7                     l2062 023C  
                   l2054 0233                     l2046 0218                     l2038 01D2  
                   l1504 04DB                     l1440 0538                     l1432 050A  
                   l1600 0292                     l2080 0255                     l2056 0238  
                   l2064 023E                     l2048 0221                     l1506 04E1  
                   l1442 0549                     l1434 0514                     l1610 0297  
                   l1602 0293                     l2090 0265                     l2066 0243  
                   l2074 024D                     l2058 023A                     l1436 0518  
                   l1620 02A4                     l1612 029B                     l1604 0294  
                   l2092 0266                     l2076 0252                     l2084 0257  
                   l2068 024B                     l1470 0472                     l1462 045F  
                   l1438 052F                     l1454 0552                     l1534 068C  
                   l1630 02AB                     l1622 02A6                     l1614 029C  
                   l1606 0295                     l2086 025C                     l2078 0254  
                   l2094 0268                     l1472 0478                     l1464 0460  
                   l1456 0573                     l1640 02B3                     l1632 02AE  
                   l1624 02A7                     l1616 029F                     l1608 0296  
                   l2096 026E                     l2088 0264                     l1490 04B6  
                   l1474 047E                     l1466 0466                     l1482 0490  
                   l1458 0581                     l1650 02D4                     l1642 02B7  
                   l1634 02B0                     l1626 02A8                     l1618 02A0  
                   l2098 0274                     l1492 04B7                     l1476 0484  
                   l1468 046C                     l1660 02F1                     l1644 02BD  
                   l1636 02B1                     l1628 02A9                     l1494 04BD  
                   l1478 048A                     l1670 032C                     l1662 02FB  
                   l1654 02DD                     l1638 02B2                     l1590 028D  
                   l1496 04C3                     l1656 02E3                     l1648 02CB  
                   l1592 028E                     l1498 04C9                     l1666 0304  
                   l1594 028F                     l1668 0327                     l1596 0290  
                   l1588 0287                     l1598 0291                     ?_isr 0070  
                   u1300 0194                     u1301 0193                     u1310 0198  
                   u1311 0197                     u1400 01EF                     u1320 019C  
                   u1401 01EE                     u1321 019B                     u1410 022F  
                   u1330 01AF                     u1411 022E                     u1331 01AE  
                   u1420 0238                     u1340 01B3                     _IOCB 0096  
                   u1421 0237                     u1341 01B2                     u1430 0243  
                   u1350 01B7                     u1270 0185                     u1431 0242  
                   u1351 01B6                     u1271 0184                     u1440 0252  
                   u1360 01CA                     u1280 018B                     u1441 0251  
                   u1361 01C9                     u1281 018A                     u1450 025C  
                   u1370 01CE                     u1290 0190                     u1451 025B  
                   u1371 01CD                     u1507 01A4                     u1291 018F  
                   u1460 026E                     u1380 01D2                     u1461 026D  
                   u1381 01D1                     u1517 01BF                     u1470 0274  
                   u1390 01E9                     u1471 0273                     u1391 01E8  
                   u1527 01DA                     u1480 0279                     u1481 0278  
                   u1490 027E                     u1491 027D        i1columnas@columna 0073  
                   _TMR0 0001                     _WPUB 0095                     _coso 0041  
                   _main 0179                     _rand 0552                     btemp 007E  
        __end_ofi1_filas 0397                     start 0012           _IOCB_interrupt 03FC  
                  ??_isr 0028                    ?_main 0070                    ?_rand 0039  
                  _ANSEL 0188                    i1l205 0396                    i1l170 066C  
                  i1l219 03FB                    i1l163 0178                    i1l180 042E  
                  i1l157 0171                    i1l326 0625                    i1l182 0444  
                  i1l191 0659                    i1l184 045A                    i1l176 0424  
                  i1l185 044E                    i1l188 045B                    i1l768 05DF  
                  _PORTA 0005                    _PORTB 0006                    _PORTC 0007  
                  _PORTD 0008                    u64_20 05EC                    u80_20 004C  
                  u64_21 05EB                    u80_21 004B                    u80_25 0048  
                  u81_20 005C                    u65_21 05F5                    u81_21 005B  
                  u65_22 05FC                    u65_23 0603                    _TRISA 0085  
                  _TRISB 0086                    u81_25 0058                    _TRISC 0087  
                  _TRISD 0088                    u74_20 05D7                    u90_20 014B  
                  u82_20 007F                    u90_21 014A                    u82_21 007E  
                  u66_25 0605                    u74_25 05D2                    u82_25 007B  
                  u91_20 015A                    u83_20 008F                    u91_21 0159  
                  u83_21 008E                    u67_25 060D                    u83_25 008B  
                  u68_20 061D                    u92_20 0168                    u84_20 00C8  
                  u68_21 061C                    u92_21 0167                    u84_21 00C7  
                  u84_25 00C4                    u93_20 0403                    u85_20 00D8  
                  u93_21 0402                    u85_21 00D7                    u85_25 00D4  
                  u94_20 040B                    u86_20 00FB                    u78_20 0036  
                  u94_21 040A                    u86_21 00FA                    u78_21 0035  
                  u86_25 00F7                    u95_20 0415                    u87_20 010B  
                  u79_20 003B                    u95_21 0414                    u87_21 010A  
                  u79_21 003A                    u87_25 0107                    u96_20 041F  
                  u88_20 0137                    u96_21 041E                    u88_21 0136  
                  u97_20 0428                    u89_20 013C                    u97_21 0427  
                  u89_21 013B                    u98_20 0432                    u98_21 0431  
                  u99_20 043E                    u99_21 043D      ___lmul@multiplicand 0030  
                  _cFila 0061                    _filas 045C                    _randx 005A  
                  _setup 0287                    _srand 068C         __end_ofi1___lmul 0626  
                  pclath 000A                    status 0003                    wtemp0 007E  
 __end_of_IOCB_interrupt 045C              i1filas@fila 0073          __initialization 0015  
           __end_of_main 0287             __end_of_rand 0599      i1___lmul@multiplier 0070  
                 ??_main 00A0                   ??_rand 003B              ?i1_columnas 0070  
                 ?_filas 002C                   ?_setup 0070                   ?_srand 002C  
                 _ANSELH 0189                ??i1_filas 0071                   u100_20 0448  
                 u100_21 0447                   u101_20 0452                   u101_21 0451  
                 i1l1420 05E8                   i1l1422 05EC                   i1l2206 037C  
                 i1l1424 0603                   i1l1520 0631                   i1l2208 03E1  
                 i1l1426 060C                   i1l1418 05E0                   i1l1450 05C8  
                 i1l1530 064F                   i1l1522 0633                   i1l1428 061D  
                 i1l1532 0654                   i1l1524 0635                   i1l1540 033C  
                 i1l1700 0097                   i1l1446 0599                   i1l1526 0637  
                 i1l1518 0626                   i1l1550 0364                   i1l1542 0344  
                 i1l1710 00BB                   i1l1448 05BA                   i1l1528 0643  
                 i1l1800 0452                   i1l1552 036C                   i1l1544 034C  
                 i1l1536 0333                   i1l1704 00A0                   i1l1802 0455  
                 i1l1570 03B1                   i1l1562 0398                   i1l1546 0354  
                 i1l1538 0334                   i1l1730 010B                   i1l1722 00E8  
                 i1l1714 00C9                   i1l1706 00B3                   i1l1804 0457  
                 i1l1572 03B9                   i1l1564 0399                   i1l1548 035C  
                 i1l1556 0374                   i1l1740 0137                   i1l1732 0113  
                 i1l1724 00EE                   i1l1716 00D8                   i1l1708 00B7  
                 i1l1806 045A                   i1l1574 03C1                   i1l1566 03A1  
                 i1l1582 03D9                   i1l1750 015A                   i1l1742 013C  
                 i1l1718 00DF                   i1l1902 065A                   i1l1576 03C9  
                 i1l1568 03A9                   i1l1760 0177                   i1l1752 0163  
                 i1l1744 0146                   i1l1736 011C                   i1l1728 00FC  
                 i1l1672 002F                   i1l1904 065E                   i1l1770 040B  
                 i1l1578 03D1                   i1l1754 0168                   i1l1746 014B  
                 i1l1738 012F                   i1l1690 006C                   i1l1682 004D  
                 i1l1674 0036                   i1l1906 0663                   i1l1772 0410  
                 i1l1780 0424                   i1l1764 03FC                   i1l1748 0155  
                 i1l1756 0171                   i1l1692 0072                   i1l1684 005C  
                 i1l1676 003B                   i1l1908 0667                   i1l1790 0437  
                 i1l1782 0428                   i1l1774 0415                   i1l1766 0403  
                 i1l1686 0063                   i1l1678 003F                   i1l1758 0175  
                 i1l1792 0439                   i1l1784 042A                   i1l1776 041A  
                 i1l1768 0406                   i1l1696 0080                   i1l1794 043E  
                 i1l1786 0432                   i1l1778 041F                   i1l1698 008F  
                 i1l1796 0448                   i1l1788 0433                   i1l1798 044A  
                 u125_20 065E                   u125_21 065D                   u126_20 0667  
                 u126_21 0666             _banderaMulti 004F                   i1_rand 0599  
        ?_IOCB_interrupt 0070                   ___lmul 050A         __end_of_columnas 050A  
                 _inicio 0059                   _upFlag 0053                   saved_w 007E  
                 srand@x 002C  __end_of__initialization 002B             i1filas@value 0070  
         __pcstackCOMMON 0070             __pidataBANK0 0695            __end_of_filas 04B3  
    __size_ofi1_columnas 0065            __end_of_setup 0332            __end_of_srand 0695  
              ?i1___lmul 0070           _OPTION_REGbits 0081                  ??_filas 002D  
                ??_setup 0040                  ??_srand 002E               __pbssBANK0 0041  
                ?i1_rand 0020               __pmaintext 0179                  ?___lmul 002C  
             __pintentry 0004       __size_of_reiniciar 0034           ___lmul@product 0035  
             ??i1___lmul 0078            columnas@value 002C                ?_columnas 002C  
                i1_filas 0332          __size_ofi1_rand 0047          __size_of___lmul 0048  
                __ptext1 0287                  __ptext2 068C                  __ptext3 0552  
                __ptext4 050A                  __ptext5 045C                  __ptext6 04B3  
                __ptext7 065A                  __ptext8 002F                  __ptext9 0332  
           __size_of_isr 001F  __size_of_TMR0_interrupt 014A             ??i1_columnas 0071  
                clrloop0 069E     end_of_initialization 002B        __end_of_reiniciar 065A  
             ??_columnas 002D         ??_IOCB_interrupt 0027          columnas@columna 002F  
             _normalFlag 0055       __end_ofi1_columnas 03FC                _PORTAbits 0005  
              _PORTBbits 0006                _PORTCbits 0007                _PORTDbits 0008  
             filas@value 002C          i1columnas@value 0070           __end_ofi1_rand 05E0  
         __end_of___lmul 0552    i1___lmul@multiplicand 0074        __size_ofi1___lmul 0046  
    start_initialization 0015              __end_of_isr 0679         _disparadorComida 004E  
               ??i1_rand 0022                 ??___lmul 0034               init_fetch0 0679  
            __pdataBANK0 005A           _TMR0_interrupt 002F                ___latbits 0002  
          __pcstackBANK0 0020            __pcstackBANK1 00A0         i1___lmul@product 0079  
               ?i1_filas 0070        __size_of_columnas 0057                __pnvBANK0 0062  
 __end_of_TMR0_interrupt 0179           __size_of_filas 0057           __size_of_setup 00AB  
         __size_of_srand 0009        interrupt_function 0004                _reiniciar 0626  
              clear_ram0 069D                _rigthFlag 0050                _semillaUp 004C  
              filas@fila 002F            _prevFlagDirec 004D          ?_TMR0_interrupt 0070  
               i1___lmul 05E0        ___lmul@multiplier 002C         __size_ofi1_filas 0065  
             ?_reiniciar 0070                 _cColumna 0060                 _easyFlag 005E  
               _hardFlag 0054                 __ptext10 0397                 __ptext11 03FC  
               __ptext12 0626                 __ptext13 0599                 __ptext14 05E0  
               _leftFlag 0051                 _columnas 04B3                 _downFlag 0052  
           _semillaRigth 0049            __size_of_main 010E            __size_of_rand 0047  
               _longitud 005F                 _semillaC 0056                 _semillaF 0057  
__size_of_IOCB_interrupt 0060               _INTCONbits 000B                 init_ram0 067D  
               intlevel1 0000              _semillaLeft 004A              _semillaDown 004B  
            ??_reiniciar 007D               _OSCCONbits 008F  
